(dp1
S'output'
p2
S"<type 'exceptions.SyntaxError'> invalid syntax (index.html, line 41)"
p3
sS'layer'
p4
S'/home/kaique/Projects/web/web2py/applications/piglet/views/default/index.html'
p5
sS'code'
p6
S'left_sidebar_enabled,right_sidebar_enabled=False,True\nresponse.write(\'\\n\', escape=False)\nresponse.write(\'<!doctype html>\\n<!--[if lt IE 7]> <html class="no-js lt-ie9 lt-ie8 lt-ie7" lang="\', escape=False)\nresponse.write(T.accepted_language or \'en\')\nresponse.write(\'"> <![endif]-->\\n<!--[if IE 7]>    <html class="no-js lt-ie9 lt-ie8" lang="\', escape=False)\nresponse.write(T.accepted_language or \'en\')\nresponse.write(\'"> <![endif]-->\\n<!--[if IE 8]>    <html class="no-js lt-ie9" lang="\', escape=False)\nresponse.write(T.accepted_language or \'en\')\nresponse.write(\'"> <![endif]-->\\n<!--[if gt IE 8]><!--> <html class="no-js" lang="\', escape=False)\nresponse.write(T.accepted_language or \'en\')\nresponse.write(\'"> <!--<![endif]-->\\n<head>\\n  <meta charset="utf-8">\\n\\n  <meta http-equiv="X-UA-Compatible" content="IE=edge,chrome=1">\\n\\n  <title>\', escape=False)\nresponse.write(response.title or request.application)\nresponse.write(\'</title>\\n\\n  <meta name="viewport" content="width=device-width">\\n\\n  <link rel="stylesheet/less" href="\', escape=False)\nresponse.write(URL(\'static\', \'less/style.less\'))\nresponse.write(\'">\\n  <script src="\', escape=False)\nresponse.write(URL(\'static\', \'js/libs/less-1.3.0.min.js\'))\nresponse.write(\'"></script>\\n  \\n  <!-- Use SimpLESS (Win/Linux/Mac) or LESS.app (Mac) to compile your .less files\\n  to style.css, and replace the 2 lines above by this one:\\n\\n  <link rel="stylesheet" href="\', escape=False)\nresponse.write(URL(\'static\', \'less/style.css\'))\nresponse.write(\'">\\n   -->\\n\\n  <script src="\', escape=False)\nresponse.write(URL(\'static\', \'js/libs/modernizr-2.5.3-respond-1.1.0.min.js\'))\nresponse.write(\'"></script>\\n\\n  \', escape=False)\nresponse.write(\'<script type="text/javascript"><!--\\n    // These variables are used by the web2py_ajax_init function in web2py_ajax.js (which is loaded below).\\n    var w2p_ajax_confirm_message = "\', escape=False)\nresponse.write(T(\'Are you sure you want to delete this object?\'))\nresponse.write(\'";\\n    var w2p_ajax_date_format = "\', escape=False)\nresponse.write(T(\'%Y-%m-%d\'))\nresponse.write(\'";\\n    var w2p_ajax_datetime_format = "\', escape=False)\nresponse.write(T(\'%Y-%m-%d %H:%M:%S\'))\nresponse.write(\'";\\n    //--></script>\\n\', escape=False)\nresponse.files.insert(0,URL(\'static\',\'js/jquery.js\'))\nresponse.files.insert(1,URL(\'static\',\'css/calendar.css\'))\nresponse.files.insert(2,URL(\'static\',\'js/calendar.js\'))\nresponse.files.insert(3,URL(\'static\',\'js/web2py.js\'))\nresponse.include_meta()\nresponse.include_files()\nresponse.write(\'\\n\', escape=False)\nresponse.write(\'\\n</head>\\n<body>\\n<!--[if lt IE 7]><p class=chromeframe>Your browser is <em>ancient!</em> <a href="http://browsehappy.com/">Upgrade to a different browser</a> or <a href="http://www.google.com/chromeframe/?redirect=true">install Google Chrome Frame</a> to experience this site.</p><![endif]-->\\n\\n    <div class="navbar navbar-fixed-top">\\n      <div class="navbar-inner">\\n        <div class="container">\\n          \\n          <a class="btn btn-navbar" data-toggle="collapse" data-target=".nav-collapse">\\n            <span class="icon-bar"></span>\\n            <span class="icon-bar"></span>\\n            <span class="icon-bar"></span>\\n          </a>\\n\\n          <a class="brand" href="#">\\n            \', escape=False)\nresponse.write((request.title or request.application).title())\nresponse.write(\'\\n          </a>\\n\\n          <div class="nav-collapse">\\n            \', escape=False)\nresponse.write(MENU(response.menu, _class="nav"))\nresponse.write(\'\\n          </div><!--/.nav-collapse -->\\n\\n        </div>\\n      </div>\\n    </div>\\n\\n    <div class="container">\\n      <div class="alert alert-info"> \\n        <strong>\\n          \', escape=False)\nif request.flash_title: request.flash_title pass\nresponse.write(\'\\n        </strong> \\n        \\n        \', escape=False)\nresponse.write(response.flash or \'\')\nresponse.write(\'\\n      </div>\\n\\n      <!-- Main hero unit for a primary marketing message or call to action -->\\n      <div class="hero-unit">\\n        <h1>Hello, world!</h1>\\n        <p>This is a template for a simple marketing or informational website. It includes a large callout called the hero unit and three supporting pieces of content. Use it as a starting point to create something more unique.</p>\\n        <p><a class="btn btn-primary btn-large">Learn more &raquo;</a></p>\\n      </div>\\n\\n      <!-- Example row of columns -->\\n      <div class="row">\\n        <div class="span4">\\n          <h2>Heading</h2>\\n           <p>Donec id elit non mi porta gravida at eget metus. Fusce dapibus, tellus ac cursus commodo, tortor mauris condimentum nibh, ut fermentum massa justo sit amet risus. Etiam porta sem malesuada magna mollis euismod. Donec sed odio dui. </p>\\n          <p><a class="btn" href="#">View details &raquo;</a></p>\\n        </div>\\n        <div class="span4">\\n          <h2>Heading</h2>\\n           <p>Donec id elit non mi porta gravida at eget metus. Fusce dapibus, tellus ac cursus commodo, tortor mauris condimentum nibh, ut fermentum massa justo sit amet risus. Etiam porta sem malesuada magna mollis euismod. Donec sed odio dui. </p>\\n          <p><a class="btn" href="#">View details &raquo;</a></p>\\n       </div>\\n        <div class="span4">\\n          <h2>Heading</h2>\\n          <p>Donec sed odio dui. Cras justo odio, dapibus ac facilisis in, egestas eget quam. Vestibulum id ligula porta felis euismod semper. Fusce dapibus, tellus ac cursus commodo, tortor mauris condimentum nibh, ut fermentum massa justo sit amet risus.</p>\\n          <p><a class="btn" href="#">View details &raquo;</a></p>\\n        </div>\\n      </div>\\n\\n      <hr>\\n\\n      <footer>\\n        <p>&copy; Company 2012</p>\\n      </footer>\\n\\n    </div> <!-- /container -->\\n<script src="//ajax.googleapis.com/ajax/libs/jquery/1.7.2/jquery.min.js"></script>\\n<script>window.jQuery || document.write(\\\'<script src="js/libs/jquery-1.7.2.min.js"><\\\\/script>\\\')</script>\\n\\n<script src="js/libs/bootstrap/bootstrap.min.js"></script>\\n\\n<script src="js/script.js"></script>\\n<script>\\n  var _gaq=[[\\\'_setAccount\\\',\\\'UA-XXXXX-X\\\'],[\\\'_trackPageview\\\']];\\n  (function(d,t){var g=d.createElement(t),s=d.getElementsByTagName(t)[0];\\n  g.src=(\\\'https:\\\'==location.protocol?\\\'//ssl\\\':\\\'//www\\\')+\\\'.google-analytics.com/ga.js\\\';\\n  s.parentNode.insertBefore(g,s)}(document,\\\'script\\\'));\\n</script>\\n\\n</body>\\n</html>\\n\', escape=False)'
p7
sS'snapshot'
p8
(dp9
S'exception'
p10
(dp11
S'__getslice__'
p12
S"<method-wrapper '__getslice__' of exceptions.SyntaxError object>"
p13
sS'text'
p14
S"'if request.flash_title: request.flash_title pass\\n'"
p15
sS'__str__'
p16
S"<method-wrapper '__str__' of exceptions.SyntaxError object>"
p17
sS'__reduce__'
p18
S'<built-in method __reduce__ of exceptions.SyntaxError object>'
p19
sS'__dict__'
p20
S'{}'
p21
sS'__sizeof__'
p22
S'<built-in method __sizeof__ of exceptions.SyntaxError object>'
p23
sS'__init__'
p24
S"<method-wrapper '__init__' of exceptions.SyntaxError object>"
p25
sS'__setattr__'
p26
S"<method-wrapper '__setattr__' of exceptions.SyntaxError object>"
p27
sS'__reduce_ex__'
p28
S'<built-in method __reduce_ex__ of exceptions.SyntaxError object>'
p29
sS'__new__'
p30
S'<built-in method __new__ of type object>'
p31
sS'__format__'
p32
S'<built-in method __format__ of exceptions.SyntaxError object>'
p33
sS'__class__'
p34
S"<type 'exceptions.SyntaxError'>"
p35
sS'filename'
p36
S"'/home/kaique/Projects/web/web2py/applications/piglet/views/default/index.html'"
p37
sS'lineno'
p38
S'41'
p39
sS'msg'
p40
S"'invalid syntax'"
p41
sS'__doc__'
p42
S"'Invalid syntax.'"
p43
sS'__getitem__'
p44
S"<method-wrapper '__getitem__' of exceptions.SyntaxError object>"
p45
sS'__setstate__'
p46
S'<built-in method __setstate__ of exceptions.SyntaxError object>'
p47
sS'__getattribute__'
p48
S"<method-wrapper '__getattribute__' of exceptions.SyntaxError object>"
p49
sS'print_file_and_line'
p50
S'None'
p51
sS'args'
p52
S"('invalid syntax', ('/home/kaique/Projects/web/web2py/applications/piglet/views/default/index.html', 41, 48, 'if request.flash_title: request.flash_title pass\\n'))"
p53
sS'__subclasshook__'
p54
S'<built-in method __subclasshook__ of type object>'
p55
sS'offset'
p56
S'48'
p57
sS'__unicode__'
p58
S'<built-in method __unicode__ of exceptions.SyntaxError object>'
p59
sS'__delattr__'
p60
S"<method-wrapper '__delattr__' of exceptions.SyntaxError object>"
p61
sS'__repr__'
p62
S"<method-wrapper '__repr__' of exceptions.SyntaxError object>"
p63
sS'__hash__'
p64
S"<method-wrapper '__hash__' of exceptions.SyntaxError object>"
p65
ssS'evalue'
p66
S'invalid syntax (index.html, line 41)'
p67
sS'request'
p68
ccopy_reg
_reconstructor
p69
(cgluon.html
BEAUTIFY
p70
c__builtin__
object
p71
NtRp72
(dp73
S'attributes'
p74
(dp75
sS'components'
p76
(lp77
g69
(cgluon.html
TABLE
p78
g71
NtRp79
(dp80
g74
(dp81
S'level'
p82
I5
ssS'parent'
p83
Nsg76
(lp84
g69
(cgluon.html
TR
p85
g71
NtRp86
(dp87
g74
(dp88
sg83
g79
sg76
(lp89
g69
(cgluon.html
TD
p90
g71
NtRp91
(dp92
g74
(dp93
S'_style'
p94
S'font-weight:bold;vertical-align:top'
p95
ssg83
g86
sg76
(lp96
S'ajax'
p97
asbag69
(g90
g71
NtRp98
(dp99
g74
(dp100
S'_valign'
p101
S'top'
p102
ssg83
g86
sg76
(lp103
S':'
asbag69
(g90
g71
NtRp104
(dp105
g74
(dp106
sg83
g86
sg76
(lp107
g69
(g70
g71
NtRp108
(dp109
g74
(dp110
g82
I5
ssg83
g104
sg76
(lp111
S'False'
p112
asbasbasbag69
(g85
g71
NtRp113
(dp114
g74
(dp115
sg83
g79
sg76
(lp116
g69
(g90
g71
NtRp117
(dp118
g74
(dp119
g94
g95
ssg83
g113
sg76
(lp120
S'application'
p121
asbag69
(g90
g71
NtRp122
(dp123
g74
(dp124
g101
g102
ssg83
g113
sg76
(lp125
S':'
asbag69
(g90
g71
NtRp126
(dp127
g74
(dp128
sg83
g113
sg76
(lp129
g69
(g70
g71
NtRp130
(dp131
g74
(dp132
g82
I5
ssg83
g126
sg76
(lp133
S'piglet'
p134
asbasbasbag69
(g85
g71
NtRp135
(dp136
g74
(dp137
sg83
g79
sg76
(lp138
g69
(g90
g71
NtRp139
(dp140
g74
(dp141
g94
g95
ssg83
g135
sg76
(lp142
g52
asbag69
(g90
g71
NtRp143
(dp144
g74
(dp145
g101
g102
ssg83
g135
sg76
(lp146
S':'
asbag69
(g90
g71
NtRp147
(dp148
g74
(dp149
sg83
g135
sg76
(lp150
g69
(g70
g71
NtRp151
(dp152
g74
(dp153
g82
I5
ssg83
g147
sg76
(lp154
g69
(g78
g71
NtRp155
(dp156
g74
(dp157
g82
I4
ssg83
Nsg76
(lp158
sbasbasbasbag69
(g85
g71
NtRp159
(dp160
g74
(dp161
sg83
g79
sg76
(lp162
g69
(g90
g71
NtRp163
(dp164
g74
(dp165
g94
g95
ssg83
g159
sg76
(lp166
S'body'
p167
asbag69
(g90
g71
NtRp168
(dp169
g74
(dp170
g101
g102
ssg83
g159
sg76
(lp171
S':'
asbag69
(g90
g71
NtRp172
(dp173
g74
(dp174
sg83
g159
sg76
(lp175
g69
(g70
g71
NtRp176
(dp177
g74
(dp178
g82
I5
ssg83
g172
sg76
(lp179
S'<cStringIO.StringO object at 0xb03020a0>'
p180
asbasbasbag69
(g85
g71
NtRp181
(dp182
g74
(dp183
sg83
g79
sg76
(lp184
g69
(g90
g71
NtRp185
(dp186
g74
(dp187
g94
g95
ssg83
g181
sg76
(lp188
S'client'
p189
asbag69
(g90
g71
NtRp190
(dp191
g74
(dp192
g101
g102
ssg83
g181
sg76
(lp193
S':'
asbag69
(g90
g71
NtRp194
(dp195
g74
(dp196
sg83
g181
sg76
(lp197
g69
(g70
g71
NtRp198
(dp199
g74
(dp200
g82
I5
ssg83
g194
sg76
(lp201
S'127.0.0.1'
p202
asbasbasbag69
(g85
g71
NtRp203
(dp204
g74
(dp205
sg83
g79
sg76
(lp206
g69
(g90
g71
NtRp207
(dp208
g74
(dp209
g94
g95
ssg83
g203
sg76
(lp210
S'controller'
p211
asbag69
(g90
g71
NtRp212
(dp213
g74
(dp214
g101
g102
ssg83
g203
sg76
(lp215
S':'
asbag69
(g90
g71
NtRp216
(dp217
g74
(dp218
sg83
g203
sg76
(lp219
g69
(g70
g71
NtRp220
(dp221
g74
(dp222
g82
I5
ssg83
g216
sg76
(lp223
S'default'
p224
asbasbasbag69
(g85
g71
NtRp225
(dp226
g74
(dp227
sg83
g79
sg76
(lp228
g69
(g90
g71
NtRp229
(dp230
g74
(dp231
g94
g95
ssg83
g225
sg76
(lp232
S'cookies'
p233
asbag69
(g90
g71
NtRp234
(dp235
g74
(dp236
g101
g102
ssg83
g225
sg76
(lp237
S':'
asbag69
(g90
g71
NtRp238
(dp239
g74
(dp240
sg83
g225
sg76
(lp241
g69
(g70
g71
NtRp242
(dp243
g74
(dp244
g82
I5
ssg83
g238
sg76
(lp245
g69
(g78
g71
NtRp246
(dp247
g74
(dp248
g82
I4
ssg83
Nsg76
(lp249
g69
(g85
g71
NtRp250
(dp251
g74
(dp252
sg83
g246
sg76
(lp253
g69
(g90
g71
NtRp254
(dp255
g74
(dp256
g94
g95
ssg83
g250
sg76
(lp257
S'session_id_piglet'
p258
asbag69
(g90
g71
NtRp259
(dp260
g74
(dp261
g101
g102
ssg83
g250
sg76
(lp262
S':'
asbag69
(g90
g71
NtRp263
(dp264
g74
(dp265
sg83
g250
sg76
(lp266
g69
(g70
g71
NtRp267
(dp268
g74
(dp269
g82
I4
ssg83
g263
sg76
(lp270
g69
(g78
g71
NtRp271
(dp272
g74
(dp273
g82
I3
ssg83
Nsg76
(lp274
g69
(g85
g71
NtRp275
(dp276
g74
(dp277
sg83
g271
sg76
(lp278
g69
(g90
g71
NtRp279
(dp280
g74
(dp281
g94
g95
ssg83
g275
sg76
(lp282
S'comment'
p283
asbag69
(g90
g71
NtRp284
(dp285
g74
(dp286
g101
g102
ssg83
g275
sg76
(lp287
S':'
asbag69
(g90
g71
NtRp288
(dp289
g74
(dp290
sg83
g275
sg76
(lp291
g69
(g70
g71
NtRp292
(dp293
g74
(dp294
g82
I3
ssg83
g288
sg76
(lp295
S''
asbasbasbag69
(g85
g71
NtRp296
(dp297
g74
(dp298
sg83
g271
sg76
(lp299
g69
(g90
g71
NtRp300
(dp301
g74
(dp302
g94
g95
ssg83
g296
sg76
(lp303
S'domain'
p304
asbag69
(g90
g71
NtRp305
(dp306
g74
(dp307
g101
g102
ssg83
g296
sg76
(lp308
S':'
asbag69
(g90
g71
NtRp309
(dp310
g74
(dp311
sg83
g296
sg76
(lp312
g69
(g70
g71
NtRp313
(dp314
g74
(dp315
g82
I3
ssg83
g309
sg76
(lp316
S''
asbasbasbag69
(g85
g71
NtRp317
(dp318
g74
(dp319
sg83
g271
sg76
(lp320
g69
(g90
g71
NtRp321
(dp322
g74
(dp323
g94
g95
ssg83
g317
sg76
(lp324
S'expires'
p325
asbag69
(g90
g71
NtRp326
(dp327
g74
(dp328
g101
g102
ssg83
g317
sg76
(lp329
S':'
asbag69
(g90
g71
NtRp330
(dp331
g74
(dp332
sg83
g317
sg76
(lp333
g69
(g70
g71
NtRp334
(dp335
g74
(dp336
g82
I3
ssg83
g330
sg76
(lp337
S''
asbasbasbag69
(g85
g71
NtRp338
(dp339
g74
(dp340
sg83
g271
sg76
(lp341
g69
(g90
g71
NtRp342
(dp343
g74
(dp344
g94
g95
ssg83
g338
sg76
(lp345
S'httponly'
p346
asbag69
(g90
g71
NtRp347
(dp348
g74
(dp349
g101
g102
ssg83
g338
sg76
(lp350
S':'
asbag69
(g90
g71
NtRp351
(dp352
g74
(dp353
sg83
g338
sg76
(lp354
g69
(g70
g71
NtRp355
(dp356
g74
(dp357
g82
I3
ssg83
g351
sg76
(lp358
S''
asbasbasbag69
(g85
g71
NtRp359
(dp360
g74
(dp361
sg83
g271
sg76
(lp362
g69
(g90
g71
NtRp363
(dp364
g74
(dp365
g94
g95
ssg83
g359
sg76
(lp366
S'max-age'
p367
asbag69
(g90
g71
NtRp368
(dp369
g74
(dp370
g101
g102
ssg83
g359
sg76
(lp371
S':'
asbag69
(g90
g71
NtRp372
(dp373
g74
(dp374
sg83
g359
sg76
(lp375
g69
(g70
g71
NtRp376
(dp377
g74
(dp378
g82
I3
ssg83
g372
sg76
(lp379
S''
asbasbasbag69
(g85
g71
NtRp380
(dp381
g74
(dp382
sg83
g271
sg76
(lp383
g69
(g90
g71
NtRp384
(dp385
g74
(dp386
g94
g95
ssg83
g380
sg76
(lp387
S'path'
p388
asbag69
(g90
g71
NtRp389
(dp390
g74
(dp391
g101
g102
ssg83
g380
sg76
(lp392
S':'
asbag69
(g90
g71
NtRp393
(dp394
g74
(dp395
sg83
g380
sg76
(lp396
g69
(g70
g71
NtRp397
(dp398
g74
(dp399
g82
I3
ssg83
g393
sg76
(lp400
S''
asbasbasbag69
(g85
g71
NtRp401
(dp402
g74
(dp403
sg83
g271
sg76
(lp404
g69
(g90
g71
NtRp405
(dp406
g74
(dp407
g94
g95
ssg83
g401
sg76
(lp408
S'secure'
p409
asbag69
(g90
g71
NtRp410
(dp411
g74
(dp412
g101
g102
ssg83
g401
sg76
(lp413
S':'
asbag69
(g90
g71
NtRp414
(dp415
g74
(dp416
sg83
g401
sg76
(lp417
g69
(g70
g71
NtRp418
(dp419
g74
(dp420
g82
I3
ssg83
g414
sg76
(lp421
S''
asbasbasbag69
(g85
g71
NtRp422
(dp423
g74
(dp424
sg83
g271
sg76
(lp425
g69
(g90
g71
NtRp426
(dp427
g74
(dp428
g94
g95
ssg83
g422
sg76
(lp429
S'version'
p430
asbag69
(g90
g71
NtRp431
(dp432
g74
(dp433
g101
g102
ssg83
g422
sg76
(lp434
S':'
asbag69
(g90
g71
NtRp435
(dp436
g74
(dp437
sg83
g422
sg76
(lp438
g69
(g70
g71
NtRp439
(dp440
g74
(dp441
g82
I3
ssg83
g435
sg76
(lp442
S''
asbasbasbasbasbasbasbasbasbasbasbag69
(g85
g71
NtRp443
(dp444
g74
(dp445
sg83
g79
sg76
(lp446
g69
(g90
g71
NtRp447
(dp448
g74
(dp449
g94
g95
ssg83
g443
sg76
(lp450
S'env'
p451
asbag69
(g90
g71
NtRp452
(dp453
g74
(dp454
g101
g102
ssg83
g443
sg76
(lp455
S':'
asbag69
(g90
g71
NtRp456
(dp457
g74
(dp458
sg83
g443
sg76
(lp459
g69
(g70
g71
NtRp460
(dp461
g74
(dp462
g82
I5
ssg83
g456
sg76
(lp463
g69
(g78
g71
NtRp464
(dp465
g74
(dp466
g82
I4
ssg83
Nsg76
(lp467
g69
(g85
g71
NtRp468
(dp469
g74
(dp470
sg83
g464
sg76
(lp471
g69
(g90
g71
NtRp472
(dp473
g74
(dp474
g94
g95
ssg83
g468
sg76
(lp475
S'app_folders'
p476
asbag69
(g90
g71
NtRp477
(dp478
g74
(dp479
g101
g102
ssg83
g468
sg76
(lp480
S':'
asbag69
(g90
g71
NtRp481
(dp482
g74
(dp483
sg83
g468
sg76
(lp484
g69
(g70
g71
NtRp485
(dp486
g74
(dp487
g82
I4
ssg83
g481
sg76
(lp488
S"set(['/home/kaique/Projects/web/web2py/applications/piglet/'])"
p489
asbasbasbag69
(g85
g71
NtRp490
(dp491
g74
(dp492
sg83
g464
sg76
(lp493
g69
(g90
g71
NtRp494
(dp495
g74
(dp496
g94
g95
ssg83
g490
sg76
(lp497
S'applications_parent'
p498
asbag69
(g90
g71
NtRp499
(dp500
g74
(dp501
g101
g102
ssg83
g490
sg76
(lp502
S':'
asbag69
(g90
g71
NtRp503
(dp504
g74
(dp505
sg83
g490
sg76
(lp506
g69
(g70
g71
NtRp507
(dp508
g74
(dp509
g82
I4
ssg83
g503
sg76
(lp510
S'/home/kaique/Projects/web/web2py'
p511
asbasbasbag69
(g85
g71
NtRp512
(dp513
g74
(dp514
sg83
g464
sg76
(lp515
g69
(g90
g71
NtRp516
(dp517
g74
(dp518
g94
g95
ssg83
g512
sg76
(lp519
S'cmd_args'
p520
asbag69
(g90
g71
NtRp521
(dp522
g74
(dp523
g101
g102
ssg83
g512
sg76
(lp524
S':'
asbag69
(g90
g71
NtRp525
(dp526
g74
(dp527
sg83
g512
sg76
(lp528
g69
(g70
g71
NtRp529
(dp530
g74
(dp531
g82
I4
ssg83
g525
sg76
(lp532
g69
(g78
g71
NtRp533
(dp534
g74
(dp535
g82
I3
ssg83
Nsg76
(lp536
sbasbasbasbag69
(g85
g71
NtRp537
(dp538
g74
(dp539
sg83
g464
sg76
(lp540
g69
(g90
g71
NtRp541
(dp542
g74
(dp543
g94
g95
ssg83
g537
sg76
(lp544
S'cmd_options'
p545
asbag69
(g90
g71
NtRp546
(dp547
g74
(dp548
g101
g102
ssg83
g537
sg76
(lp549
S':'
asbag69
(g90
g71
NtRp550
(dp551
g74
(dp552
sg83
g537
sg76
(lp553
g69
(g70
g71
NtRp554
(dp555
g74
(dp556
g82
I4
ssg83
g550
sg76
(lp557
S"<Values at 0x9fd880c: {'verbose': False, 'ip': '127.0.0.1', 'shutdown_timeout': 5, 'taskbar': False, 'nocron': False, 'pid_filename': 'httpserver.pid', 'maxthreads': None, 'softcron': False, 'server_name': 'main', 'bpython': False, 'nogui': False, 'port': 8000, 'extcron': False, 'debuglevel': 30, 'test': None, 'folder': '/home/kaique/Projects/web/web2py', 'config': '', 'import_models': False, 'winservice': '', 'shell': None, 'run': '', 'log_filename': 'httpserver.log', 'args': [''], 'socket_timeout': 5, 'ssl_ca_certificate': None, 'scheduler': None, 'profiler_filename': None, 'ssl_private_key': '', 'password': 'dev', 'request_queue_size': 5, 'ssl_certificate': '', 'cronjob': False, 'numthreads': None, 'quiet': False, 'interfaces': None, 'minthreads': None, 'timeout': 10, 'plain': False, 'nobanner': False}>"
p558
asbasbasbag69
(g85
g71
NtRp559
(dp560
g74
(dp561
sg83
g464
sg76
(lp562
g69
(g90
g71
NtRp563
(dp564
g74
(dp565
g94
g95
ssg83
g559
sg76
(lp566
S'db_sessions'
p567
asbag69
(g90
g71
NtRp568
(dp569
g74
(dp570
g101
g102
ssg83
g559
sg76
(lp571
S':'
asbag69
(g90
g71
NtRp572
(dp573
g74
(dp574
sg83
g559
sg76
(lp575
g69
(g70
g71
NtRp576
(dp577
g74
(dp578
g82
I4
ssg83
g572
sg76
(lp579
S'set([])'
p580
asbasbasbag69
(g85
g71
NtRp581
(dp582
g74
(dp583
sg83
g464
sg76
(lp584
g69
(g90
g71
NtRp585
(dp586
g74
(dp587
g94
g95
ssg83
g581
sg76
(lp588
S'debugging'
p589
asbag69
(g90
g71
NtRp590
(dp591
g74
(dp592
g101
g102
ssg83
g581
sg76
(lp593
S':'
asbag69
(g90
g71
NtRp594
(dp595
g74
(dp596
sg83
g581
sg76
(lp597
g69
(g70
g71
NtRp598
(dp599
g74
(dp600
g82
I4
ssg83
g594
sg76
(lp601
g112
asbasbasbag69
(g85
g71
NtRp602
(dp603
g74
(dp604
sg83
g464
sg76
(lp605
g69
(g90
g71
NtRp606
(dp607
g74
(dp608
g94
g95
ssg83
g602
sg76
(lp609
S'gluon_parent'
p610
asbag69
(g90
g71
NtRp611
(dp612
g74
(dp613
g101
g102
ssg83
g602
sg76
(lp614
S':'
asbag69
(g90
g71
NtRp615
(dp616
g74
(dp617
sg83
g602
sg76
(lp618
g69
(g70
g71
NtRp619
(dp620
g74
(dp621
g82
I4
ssg83
g615
sg76
(lp622
S'/home/kaique/Projects/web/web2py'
p623
asbasbasbag69
(g85
g71
NtRp624
(dp625
g74
(dp626
sg83
g464
sg76
(lp627
g69
(g90
g71
NtRp628
(dp629
g74
(dp630
g94
g95
ssg83
g624
sg76
(lp631
S'http_accept'
p632
asbag69
(g90
g71
NtRp633
(dp634
g74
(dp635
g101
g102
ssg83
g624
sg76
(lp636
S':'
asbag69
(g90
g71
NtRp637
(dp638
g74
(dp639
sg83
g624
sg76
(lp640
g69
(g70
g71
NtRp641
(dp642
g74
(dp643
g82
I4
ssg83
g637
sg76
(lp644
S'text/html,application/xhtml+xml,application/xml;q=0.9,*/*;q=0.8'
p645
asbasbasbag69
(g85
g71
NtRp646
(dp647
g74
(dp648
sg83
g464
sg76
(lp649
g69
(g90
g71
NtRp650
(dp651
g74
(dp652
g94
g95
ssg83
g646
sg76
(lp653
S'http_accept_encoding'
p654
asbag69
(g90
g71
NtRp655
(dp656
g74
(dp657
g101
g102
ssg83
g646
sg76
(lp658
S':'
asbag69
(g90
g71
NtRp659
(dp660
g74
(dp661
sg83
g646
sg76
(lp662
g69
(g70
g71
NtRp663
(dp664
g74
(dp665
g82
I4
ssg83
g659
sg76
(lp666
S'gzip, deflate'
p667
asbasbasbag69
(g85
g71
NtRp668
(dp669
g74
(dp670
sg83
g464
sg76
(lp671
g69
(g90
g71
NtRp672
(dp673
g74
(dp674
g94
g95
ssg83
g668
sg76
(lp675
S'http_accept_language'
p676
asbag69
(g90
g71
NtRp677
(dp678
g74
(dp679
g101
g102
ssg83
g668
sg76
(lp680
S':'
asbag69
(g90
g71
NtRp681
(dp682
g74
(dp683
sg83
g668
sg76
(lp684
g69
(g70
g71
NtRp685
(dp686
g74
(dp687
g82
I4
ssg83
g681
sg76
(lp688
S'en-us,en;q=0.5'
p689
asbasbasbag69
(g85
g71
NtRp690
(dp691
g74
(dp692
sg83
g464
sg76
(lp693
g69
(g90
g71
NtRp694
(dp695
g74
(dp696
g94
g95
ssg83
g690
sg76
(lp697
S'http_cache_control'
p698
asbag69
(g90
g71
NtRp699
(dp700
g74
(dp701
g101
g102
ssg83
g690
sg76
(lp702
S':'
asbag69
(g90
g71
NtRp703
(dp704
g74
(dp705
sg83
g690
sg76
(lp706
g69
(g70
g71
NtRp707
(dp708
g74
(dp709
g82
I4
ssg83
g703
sg76
(lp710
S'max-age=0'
p711
asbasbasbag69
(g85
g71
NtRp712
(dp713
g74
(dp714
sg83
g464
sg76
(lp715
g69
(g90
g71
NtRp716
(dp717
g74
(dp718
g94
g95
ssg83
g712
sg76
(lp719
S'http_connection'
p720
asbag69
(g90
g71
NtRp721
(dp722
g74
(dp723
g101
g102
ssg83
g712
sg76
(lp724
S':'
asbag69
(g90
g71
NtRp725
(dp726
g74
(dp727
sg83
g712
sg76
(lp728
g69
(g70
g71
NtRp729
(dp730
g74
(dp731
g82
I4
ssg83
g725
sg76
(lp732
S'keep-alive'
p733
asbasbasbag69
(g85
g71
NtRp734
(dp735
g74
(dp736
sg83
g464
sg76
(lp737
g69
(g90
g71
NtRp738
(dp739
g74
(dp740
g94
g95
ssg83
g734
sg76
(lp741
S'http_cookie'
p742
asbag69
(g90
g71
NtRp743
(dp744
g74
(dp745
g101
g102
ssg83
g734
sg76
(lp746
S':'
asbag69
(g90
g71
NtRp747
(dp748
g74
(dp749
sg83
g734
sg76
(lp750
g69
(g70
g71
NtRp751
(dp752
g74
(dp753
g82
I4
ssg83
g747
sg76
(lp754
S'session_id_piglet=127.0.0.1-467b5a6c-08d5-415c-bff2-844a234b46f4; __utma=111872281.1504451071.1338052499.1338052499.1338052499.1; __utmb=111872281.20.10.1338052499; __utmc=111872281; __utmz=111872281.1338052499.1.1.utmcsr=(direct)|utmccn=(direct)|utmcmd=(none)'
p755
asbasbasbag69
(g85
g71
NtRp756
(dp757
g74
(dp758
sg83
g464
sg76
(lp759
g69
(g90
g71
NtRp760
(dp761
g74
(dp762
g94
g95
ssg83
g756
sg76
(lp763
S'http_host'
p764
asbag69
(g90
g71
NtRp765
(dp766
g74
(dp767
g101
g102
ssg83
g756
sg76
(lp768
S':'
asbag69
(g90
g71
NtRp769
(dp770
g74
(dp771
sg83
g756
sg76
(lp772
g69
(g70
g71
NtRp773
(dp774
g74
(dp775
g82
I4
ssg83
g769
sg76
(lp776
S'localhost:8000'
p777
asbasbasbag69
(g85
g71
NtRp778
(dp779
g74
(dp780
sg83
g464
sg76
(lp781
g69
(g90
g71
NtRp782
(dp783
g74
(dp784
g94
g95
ssg83
g778
sg76
(lp785
S'http_user_agent'
p786
asbag69
(g90
g71
NtRp787
(dp788
g74
(dp789
g101
g102
ssg83
g778
sg76
(lp790
S':'
asbag69
(g90
g71
NtRp791
(dp792
g74
(dp793
sg83
g778
sg76
(lp794
g69
(g70
g71
NtRp795
(dp796
g74
(dp797
g82
I4
ssg83
g791
sg76
(lp798
S'Mozilla/5.0 (X11; Linux i686; rv:12.0) Gecko/20100101 Firefox/12.0'
p799
asbasbasbag69
(g85
g71
NtRp800
(dp801
g74
(dp802
sg83
g464
sg76
(lp803
g69
(g90
g71
NtRp804
(dp805
g74
(dp806
g94
g95
ssg83
g800
sg76
(lp807
S'is_jython'
p808
asbag69
(g90
g71
NtRp809
(dp810
g74
(dp811
g101
g102
ssg83
g800
sg76
(lp812
S':'
asbag69
(g90
g71
NtRp813
(dp814
g74
(dp815
sg83
g800
sg76
(lp816
g69
(g70
g71
NtRp817
(dp818
g74
(dp819
g82
I4
ssg83
g813
sg76
(lp820
g112
asbasbasbag69
(g85
g71
NtRp821
(dp822
g74
(dp823
sg83
g464
sg76
(lp824
g69
(g90
g71
NtRp825
(dp826
g74
(dp827
g94
g95
ssg83
g821
sg76
(lp828
S'is_pypy'
p829
asbag69
(g90
g71
NtRp830
(dp831
g74
(dp832
g101
g102
ssg83
g821
sg76
(lp833
S':'
asbag69
(g90
g71
NtRp834
(dp835
g74
(dp836
sg83
g821
sg76
(lp837
g69
(g70
g71
NtRp838
(dp839
g74
(dp840
g82
I4
ssg83
g834
sg76
(lp841
g112
asbasbasbag69
(g85
g71
NtRp842
(dp843
g74
(dp844
sg83
g464
sg76
(lp845
g69
(g90
g71
NtRp846
(dp847
g74
(dp848
g94
g95
ssg83
g842
sg76
(lp849
S'path_info'
p850
asbag69
(g90
g71
NtRp851
(dp852
g74
(dp853
g101
g102
ssg83
g842
sg76
(lp854
S':'
asbag69
(g90
g71
NtRp855
(dp856
g74
(dp857
sg83
g842
sg76
(lp858
g69
(g70
g71
NtRp859
(dp860
g74
(dp861
g82
I4
ssg83
g855
sg76
(lp862
S'/piglet'
p863
asbasbasbag69
(g85
g71
NtRp864
(dp865
g74
(dp866
sg83
g464
sg76
(lp867
g69
(g90
g71
NtRp868
(dp869
g74
(dp870
g94
g95
ssg83
g864
sg76
(lp871
S'query_string'
p872
asbag69
(g90
g71
NtRp873
(dp874
g74
(dp875
g101
g102
ssg83
g864
sg76
(lp876
S':'
asbag69
(g90
g71
NtRp877
(dp878
g74
(dp879
sg83
g864
sg76
(lp880
g69
(g70
g71
NtRp881
(dp882
g74
(dp883
g82
I4
ssg83
g877
sg76
(lp884
S''
asbasbasbag69
(g85
g71
NtRp885
(dp886
g74
(dp887
sg83
g464
sg76
(lp888
g69
(g90
g71
NtRp889
(dp890
g74
(dp891
g94
g95
ssg83
g885
sg76
(lp892
S'remote_addr'
p893
asbag69
(g90
g71
NtRp894
(dp895
g74
(dp896
g101
g102
ssg83
g885
sg76
(lp897
S':'
asbag69
(g90
g71
NtRp898
(dp899
g74
(dp900
sg83
g885
sg76
(lp901
g69
(g70
g71
NtRp902
(dp903
g74
(dp904
g82
I4
ssg83
g898
sg76
(lp905
g202
asbasbasbag69
(g85
g71
NtRp906
(dp907
g74
(dp908
sg83
g464
sg76
(lp909
g69
(g90
g71
NtRp910
(dp911
g74
(dp912
g94
g95
ssg83
g906
sg76
(lp913
S'remote_port'
p914
asbag69
(g90
g71
NtRp915
(dp916
g74
(dp917
g101
g102
ssg83
g906
sg76
(lp918
S':'
asbag69
(g90
g71
NtRp919
(dp920
g74
(dp921
sg83
g906
sg76
(lp922
g69
(g70
g71
NtRp923
(dp924
g74
(dp925
g82
I4
ssg83
g919
sg76
(lp926
S'33254'
p927
asbasbasbag69
(g85
g71
NtRp928
(dp929
g74
(dp930
sg83
g464
sg76
(lp931
g69
(g90
g71
NtRp932
(dp933
g74
(dp934
g94
g95
ssg83
g928
sg76
(lp935
S'request_method'
p936
asbag69
(g90
g71
NtRp937
(dp938
g74
(dp939
g101
g102
ssg83
g928
sg76
(lp940
S':'
asbag69
(g90
g71
NtRp941
(dp942
g74
(dp943
sg83
g928
sg76
(lp944
g69
(g70
g71
NtRp945
(dp946
g74
(dp947
g82
I4
ssg83
g941
sg76
(lp948
S'GET'
p949
asbasbasbag69
(g85
g71
NtRp950
(dp951
g74
(dp952
sg83
g464
sg76
(lp953
g69
(g90
g71
NtRp954
(dp955
g74
(dp956
g94
g95
ssg83
g950
sg76
(lp957
S'script_name'
p958
asbag69
(g90
g71
NtRp959
(dp960
g74
(dp961
g101
g102
ssg83
g950
sg76
(lp962
S':'
asbag69
(g90
g71
NtRp963
(dp964
g74
(dp965
sg83
g950
sg76
(lp966
g69
(g70
g71
NtRp967
(dp968
g74
(dp969
g82
I4
ssg83
g963
sg76
(lp970
S''
asbasbasbag69
(g85
g71
NtRp971
(dp972
g74
(dp973
sg83
g464
sg76
(lp974
g69
(g90
g71
NtRp975
(dp976
g74
(dp977
g94
g95
ssg83
g971
sg76
(lp978
S'server_name'
p979
asbag69
(g90
g71
NtRp980
(dp981
g74
(dp982
g101
g102
ssg83
g971
sg76
(lp983
S':'
asbag69
(g90
g71
NtRp984
(dp985
g74
(dp986
sg83
g971
sg76
(lp987
g69
(g70
g71
NtRp988
(dp989
g74
(dp990
g82
I4
ssg83
g984
sg76
(lp991
S'main'
p992
asbasbasbag69
(g85
g71
NtRp993
(dp994
g74
(dp995
sg83
g464
sg76
(lp996
g69
(g90
g71
NtRp997
(dp998
g74
(dp999
g94
g95
ssg83
g993
sg76
(lp1000
S'server_port'
p1001
asbag69
(g90
g71
NtRp1002
(dp1003
g74
(dp1004
g101
g102
ssg83
g993
sg76
(lp1005
S':'
asbag69
(g90
g71
NtRp1006
(dp1007
g74
(dp1008
sg83
g993
sg76
(lp1009
g69
(g70
g71
NtRp1010
(dp1011
g74
(dp1012
g82
I4
ssg83
g1006
sg76
(lp1013
S'8000'
p1014
asbasbasbag69
(g85
g71
NtRp1015
(dp1016
g74
(dp1017
sg83
g464
sg76
(lp1018
g69
(g90
g71
NtRp1019
(dp1020
g74
(dp1021
g94
g95
ssg83
g1015
sg76
(lp1022
S'server_protocol'
p1023
asbag69
(g90
g71
NtRp1024
(dp1025
g74
(dp1026
g101
g102
ssg83
g1015
sg76
(lp1027
S':'
asbag69
(g90
g71
NtRp1028
(dp1029
g74
(dp1030
sg83
g1015
sg76
(lp1031
g69
(g70
g71
NtRp1032
(dp1033
g74
(dp1034
g82
I4
ssg83
g1028
sg76
(lp1035
S'HTTP/1.1'
p1036
asbasbasbag69
(g85
g71
NtRp1037
(dp1038
g74
(dp1039
sg83
g464
sg76
(lp1040
g69
(g90
g71
NtRp1041
(dp1042
g74
(dp1043
g94
g95
ssg83
g1037
sg76
(lp1044
S'server_software'
p1045
asbag69
(g90
g71
NtRp1046
(dp1047
g74
(dp1048
g101
g102
ssg83
g1037
sg76
(lp1049
S':'
asbag69
(g90
g71
NtRp1050
(dp1051
g74
(dp1052
sg83
g1037
sg76
(lp1053
g69
(g70
g71
NtRp1054
(dp1055
g74
(dp1056
g82
I4
ssg83
g1050
sg76
(lp1057
S'Rocket 1.2.4'
p1058
asbasbasbag69
(g85
g71
NtRp1059
(dp1060
g74
(dp1061
sg83
g464
sg76
(lp1062
g69
(g90
g71
NtRp1063
(dp1064
g74
(dp1065
g94
g95
ssg83
g1059
sg76
(lp1066
S'web2py_crontype'
p1067
asbag69
(g90
g71
NtRp1068
(dp1069
g74
(dp1070
g101
g102
ssg83
g1059
sg76
(lp1071
S':'
asbag69
(g90
g71
NtRp1072
(dp1073
g74
(dp1074
sg83
g1059
sg76
(lp1075
g69
(g70
g71
NtRp1076
(dp1077
g74
(dp1078
g82
I4
ssg83
g1072
sg76
(lp1079
S'hard'
p1080
asbasbasbag69
(g85
g71
NtRp1081
(dp1082
g74
(dp1083
sg83
g464
sg76
(lp1084
g69
(g90
g71
NtRp1085
(dp1086
g74
(dp1087
g94
g95
ssg83
g1081
sg76
(lp1088
S'web2py_path'
p1089
asbag69
(g90
g71
NtRp1090
(dp1091
g74
(dp1092
g101
g102
ssg83
g1081
sg76
(lp1093
S':'
asbag69
(g90
g71
NtRp1094
(dp1095
g74
(dp1096
sg83
g1081
sg76
(lp1097
g69
(g70
g71
NtRp1098
(dp1099
g74
(dp1100
g82
I4
ssg83
g1094
sg76
(lp1101
g511
asbasbasbag69
(g85
g71
NtRp1102
(dp1103
g74
(dp1104
sg83
g464
sg76
(lp1105
g69
(g90
g71
NtRp1106
(dp1107
g74
(dp1108
g94
g95
ssg83
g1102
sg76
(lp1109
S'web2py_version'
p1110
asbag69
(g90
g71
NtRp1111
(dp1112
g74
(dp1113
g101
g102
ssg83
g1102
sg76
(lp1114
S':'
asbag69
(g90
g71
NtRp1115
(dp1116
g74
(dp1117
sg83
g1102
sg76
(lp1118
g69
(g70
g71
NtRp1119
(dp1120
g74
(dp1121
g82
I4
ssg83
g1115
sg76
(lp1122
g69
(g78
g71
NtRp1123
(dp1124
g74
(dp1125
g82
I3
ssg83
Nsg76
(lp1126
g69
(g85
g71
NtRp1127
(dp1128
g74
(dp1129
sg83
g1123
sg76
(lp1130
g69
(g90
g71
NtRp1131
(dp1132
g74
(dp1133
sg83
g1127
sg76
(lp1134
g69
(g70
g71
NtRp1135
(dp1136
g74
(dp1137
g82
I3
ssg83
g1131
sg76
(lp1138
S'1'
asbasbasbag69
(g85
g71
NtRp1139
(dp1140
g74
(dp1141
sg83
g1123
sg76
(lp1142
g69
(g90
g71
NtRp1143
(dp1144
g74
(dp1145
sg83
g1139
sg76
(lp1146
g69
(g70
g71
NtRp1147
(dp1148
g74
(dp1149
g82
I3
ssg83
g1143
sg76
(lp1150
S'99'
p1151
asbasbasbag69
(g85
g71
NtRp1152
(dp1153
g74
(dp1154
sg83
g1123
sg76
(lp1155
g69
(g90
g71
NtRp1156
(dp1157
g74
(dp1158
sg83
g1152
sg76
(lp1159
g69
(g70
g71
NtRp1160
(dp1161
g74
(dp1162
g82
I3
ssg83
g1156
sg76
(lp1163
S'7'
asbasbasbag69
(g85
g71
NtRp1164
(dp1165
g74
(dp1166
sg83
g1123
sg76
(lp1167
g69
(g90
g71
NtRp1168
(dp1169
g74
(dp1170
sg83
g1164
sg76
(lp1171
g69
(g70
g71
NtRp1172
(dp1173
g74
(dp1174
g82
I3
ssg83
g1168
sg76
(lp1175
S'datetime.datetime(2012, 3, 4, 22, 12, 8)'
p1176
asbasbasbag69
(g85
g71
NtRp1177
(dp1178
g74
(dp1179
sg83
g1123
sg76
(lp1180
g69
(g90
g71
NtRp1181
(dp1182
g74
(dp1183
sg83
g1177
sg76
(lp1184
g69
(g70
g71
NtRp1185
(dp1186
g74
(dp1187
g82
I3
ssg83
g1181
sg76
(lp1188
S'stable'
p1189
asbasbasbasbasbasbasbag69
(g85
g71
NtRp1190
(dp1191
g74
(dp1192
sg83
g464
sg76
(lp1193
g69
(g90
g71
NtRp1194
(dp1195
g74
(dp1196
g94
g95
ssg83
g1190
sg76
(lp1197
S'wsgi_errors'
p1198
asbag69
(g90
g71
NtRp1199
(dp1200
g74
(dp1201
g101
g102
ssg83
g1190
sg76
(lp1202
S':'
asbag69
(g90
g71
NtRp1203
(dp1204
g74
(dp1205
sg83
g1190
sg76
(lp1206
g69
(g70
g71
NtRp1207
(dp1208
g74
(dp1209
g82
I4
ssg83
g1203
sg76
(lp1210
S"<open file '<stderr>', mode 'w' at 0xb76e00d0>"
p1211
asbasbasbag69
(g85
g71
NtRp1212
(dp1213
g74
(dp1214
sg83
g464
sg76
(lp1215
g69
(g90
g71
NtRp1216
(dp1217
g74
(dp1218
g94
g95
ssg83
g1212
sg76
(lp1219
S'wsgi_file_wrapper'
p1220
asbag69
(g90
g71
NtRp1221
(dp1222
g74
(dp1223
g101
g102
ssg83
g1212
sg76
(lp1224
S':'
asbag69
(g90
g71
NtRp1225
(dp1226
g74
(dp1227
sg83
g1212
sg76
(lp1228
g69
(g70
g71
NtRp1229
(dp1230
g74
(dp1231
g82
I4
ssg83
g1225
sg76
(lp1232
S'<class wsgiref.util.FileWrapper at 0x9fb0e6c>'
p1233
asbasbasbag69
(g85
g71
NtRp1234
(dp1235
g74
(dp1236
sg83
g464
sg76
(lp1237
g69
(g90
g71
NtRp1238
(dp1239
g74
(dp1240
g94
g95
ssg83
g1234
sg76
(lp1241
S'wsgi_input'
p1242
asbag69
(g90
g71
NtRp1243
(dp1244
g74
(dp1245
g101
g102
ssg83
g1234
sg76
(lp1246
S':'
asbag69
(g90
g71
NtRp1247
(dp1248
g74
(dp1249
sg83
g1234
sg76
(lp1250
g69
(g70
g71
NtRp1251
(dp1252
g74
(dp1253
g82
I4
ssg83
g1247
sg76
(lp1254
S'<socket._fileobject object at 0xb0309b2c>'
p1255
asbasbasbag69
(g85
g71
NtRp1256
(dp1257
g74
(dp1258
sg83
g464
sg76
(lp1259
g69
(g90
g71
NtRp1260
(dp1261
g74
(dp1262
g94
g95
ssg83
g1256
sg76
(lp1263
S'wsgi_multiprocess'
p1264
asbag69
(g90
g71
NtRp1265
(dp1266
g74
(dp1267
g101
g102
ssg83
g1256
sg76
(lp1268
S':'
asbag69
(g90
g71
NtRp1269
(dp1270
g74
(dp1271
sg83
g1256
sg76
(lp1272
g69
(g70
g71
NtRp1273
(dp1274
g74
(dp1275
g82
I4
ssg83
g1269
sg76
(lp1276
g112
asbasbasbag69
(g85
g71
NtRp1277
(dp1278
g74
(dp1279
sg83
g464
sg76
(lp1280
g69
(g90
g71
NtRp1281
(dp1282
g74
(dp1283
g94
g95
ssg83
g1277
sg76
(lp1284
S'wsgi_multithread'
p1285
asbag69
(g90
g71
NtRp1286
(dp1287
g74
(dp1288
g101
g102
ssg83
g1277
sg76
(lp1289
S':'
asbag69
(g90
g71
NtRp1290
(dp1291
g74
(dp1292
sg83
g1277
sg76
(lp1293
g69
(g70
g71
NtRp1294
(dp1295
g74
(dp1296
g82
I4
ssg83
g1290
sg76
(lp1297
S'True'
p1298
asbasbasbag69
(g85
g71
NtRp1299
(dp1300
g74
(dp1301
sg83
g464
sg76
(lp1302
g69
(g90
g71
NtRp1303
(dp1304
g74
(dp1305
g94
g95
ssg83
g1299
sg76
(lp1306
S'wsgi_run_once'
p1307
asbag69
(g90
g71
NtRp1308
(dp1309
g74
(dp1310
g101
g102
ssg83
g1299
sg76
(lp1311
S':'
asbag69
(g90
g71
NtRp1312
(dp1313
g74
(dp1314
sg83
g1299
sg76
(lp1315
g69
(g70
g71
NtRp1316
(dp1317
g74
(dp1318
g82
I4
ssg83
g1312
sg76
(lp1319
g112
asbasbasbag69
(g85
g71
NtRp1320
(dp1321
g74
(dp1322
sg83
g464
sg76
(lp1323
g69
(g90
g71
NtRp1324
(dp1325
g74
(dp1326
g94
g95
ssg83
g1320
sg76
(lp1327
S'wsgi_url_scheme'
p1328
asbag69
(g90
g71
NtRp1329
(dp1330
g74
(dp1331
g101
g102
ssg83
g1320
sg76
(lp1332
S':'
asbag69
(g90
g71
NtRp1333
(dp1334
g74
(dp1335
sg83
g1320
sg76
(lp1336
g69
(g70
g71
NtRp1337
(dp1338
g74
(dp1339
g82
I4
ssg83
g1333
sg76
(lp1340
S'http'
p1341
asbasbasbag69
(g85
g71
NtRp1342
(dp1343
g74
(dp1344
sg83
g464
sg76
(lp1345
g69
(g90
g71
NtRp1346
(dp1347
g74
(dp1348
g94
g95
ssg83
g1342
sg76
(lp1349
S'wsgi_version'
p1350
asbag69
(g90
g71
NtRp1351
(dp1352
g74
(dp1353
g101
g102
ssg83
g1342
sg76
(lp1354
S':'
asbag69
(g90
g71
NtRp1355
(dp1356
g74
(dp1357
sg83
g1342
sg76
(lp1358
g69
(g70
g71
NtRp1359
(dp1360
g74
(dp1361
g82
I4
ssg83
g1355
sg76
(lp1362
g69
(g78
g71
NtRp1363
(dp1364
g74
(dp1365
g82
I3
ssg83
Nsg76
(lp1366
g69
(g85
g71
NtRp1367
(dp1368
g74
(dp1369
sg83
g1363
sg76
(lp1370
g69
(g90
g71
NtRp1371
(dp1372
g74
(dp1373
sg83
g1367
sg76
(lp1374
g69
(g70
g71
NtRp1375
(dp1376
g74
(dp1377
g82
I3
ssg83
g1371
sg76
(lp1378
S'1'
asbasbasbag69
(g85
g71
NtRp1379
(dp1380
g74
(dp1381
sg83
g1363
sg76
(lp1382
g69
(g90
g71
NtRp1383
(dp1384
g74
(dp1385
sg83
g1379
sg76
(lp1386
g69
(g70
g71
NtRp1387
(dp1388
g74
(dp1389
g82
I3
ssg83
g1383
sg76
(lp1390
S'0'
asbasbasbasbasbasbasbasbasbasbasbag69
(g85
g71
NtRp1391
(dp1392
g74
(dp1393
sg83
g79
sg76
(lp1394
g69
(g90
g71
NtRp1395
(dp1396
g74
(dp1397
g94
g95
ssg83
g1391
sg76
(lp1398
S'extension'
p1399
asbag69
(g90
g71
NtRp1400
(dp1401
g74
(dp1402
g101
g102
ssg83
g1391
sg76
(lp1403
S':'
asbag69
(g90
g71
NtRp1404
(dp1405
g74
(dp1406
sg83
g1391
sg76
(lp1407
g69
(g70
g71
NtRp1408
(dp1409
g74
(dp1410
g82
I5
ssg83
g1404
sg76
(lp1411
S'html'
p1412
asbasbasbag69
(g85
g71
NtRp1413
(dp1414
g74
(dp1415
sg83
g79
sg76
(lp1416
g69
(g90
g71
NtRp1417
(dp1418
g74
(dp1419
g94
g95
ssg83
g1413
sg76
(lp1420
S'folder'
p1421
asbag69
(g90
g71
NtRp1422
(dp1423
g74
(dp1424
g101
g102
ssg83
g1413
sg76
(lp1425
S':'
asbag69
(g90
g71
NtRp1426
(dp1427
g74
(dp1428
sg83
g1413
sg76
(lp1429
g69
(g70
g71
NtRp1430
(dp1431
g74
(dp1432
g82
I5
ssg83
g1426
sg76
(lp1433
S'/home/kaique/Projects/web/web2py/applications/piglet/'
p1434
asbasbasbag69
(g85
g71
NtRp1435
(dp1436
g74
(dp1437
sg83
g79
sg76
(lp1438
g69
(g90
g71
NtRp1439
(dp1440
g74
(dp1441
g94
g95
ssg83
g1435
sg76
(lp1442
S'function'
p1443
asbag69
(g90
g71
NtRp1444
(dp1445
g74
(dp1446
g101
g102
ssg83
g1435
sg76
(lp1447
S':'
asbag69
(g90
g71
NtRp1448
(dp1449
g74
(dp1450
sg83
g1435
sg76
(lp1451
g69
(g70
g71
NtRp1452
(dp1453
g74
(dp1454
g82
I5
ssg83
g1448
sg76
(lp1455
S'index'
p1456
asbasbasbag69
(g85
g71
NtRp1457
(dp1458
g74
(dp1459
sg83
g79
sg76
(lp1460
g69
(g90
g71
NtRp1461
(dp1462
g74
(dp1463
g94
g95
ssg83
g1457
sg76
(lp1464
S'get_vars'
p1465
asbag69
(g90
g71
NtRp1466
(dp1467
g74
(dp1468
g101
g102
ssg83
g1457
sg76
(lp1469
S':'
asbag69
(g90
g71
NtRp1470
(dp1471
g74
(dp1472
sg83
g1457
sg76
(lp1473
g69
(g70
g71
NtRp1474
(dp1475
g74
(dp1476
g82
I5
ssg83
g1470
sg76
(lp1477
g69
(g78
g71
NtRp1478
(dp1479
g74
(dp1480
g82
I4
ssg83
Nsg76
(lp1481
sbasbasbasbag69
(g85
g71
NtRp1482
(dp1483
g74
(dp1484
sg83
g79
sg76
(lp1485
g69
(g90
g71
NtRp1486
(dp1487
g74
(dp1488
g94
g95
ssg83
g1482
sg76
(lp1489
S'global_settings'
p1490
asbag69
(g90
g71
NtRp1491
(dp1492
g74
(dp1493
g101
g102
ssg83
g1482
sg76
(lp1494
S':'
asbag69
(g90
g71
NtRp1495
(dp1496
g74
(dp1497
sg83
g1482
sg76
(lp1498
g69
(g70
g71
NtRp1499
(dp1500
g74
(dp1501
g82
I5
ssg83
g1495
sg76
(lp1502
g69
(g78
g71
NtRp1503
(dp1504
g74
(dp1505
g82
I4
ssg83
Nsg76
(lp1506
g69
(g85
g71
NtRp1507
(dp1508
g74
(dp1509
sg83
g1503
sg76
(lp1510
g69
(g90
g71
NtRp1511
(dp1512
g74
(dp1513
g94
g95
ssg83
g1507
sg76
(lp1514
g476
asbag69
(g90
g71
NtRp1515
(dp1516
g74
(dp1517
g101
g102
ssg83
g1507
sg76
(lp1518
S':'
asbag69
(g90
g71
NtRp1519
(dp1520
g74
(dp1521
sg83
g1507
sg76
(lp1522
g69
(g70
g71
NtRp1523
(dp1524
g74
(dp1525
g82
I4
ssg83
g1519
sg76
(lp1526
S"set(['/home/kaique/Projects/web/web2py/applications/piglet/'])"
p1527
asbasbasbag69
(g85
g71
NtRp1528
(dp1529
g74
(dp1530
sg83
g1503
sg76
(lp1531
g69
(g90
g71
NtRp1532
(dp1533
g74
(dp1534
g94
g95
ssg83
g1528
sg76
(lp1535
g498
asbag69
(g90
g71
NtRp1536
(dp1537
g74
(dp1538
g101
g102
ssg83
g1528
sg76
(lp1539
S':'
asbag69
(g90
g71
NtRp1540
(dp1541
g74
(dp1542
sg83
g1528
sg76
(lp1543
g69
(g70
g71
NtRp1544
(dp1545
g74
(dp1546
g82
I4
ssg83
g1540
sg76
(lp1547
g511
asbasbasbag69
(g85
g71
NtRp1548
(dp1549
g74
(dp1550
sg83
g1503
sg76
(lp1551
g69
(g90
g71
NtRp1552
(dp1553
g74
(dp1554
g94
g95
ssg83
g1548
sg76
(lp1555
g520
asbag69
(g90
g71
NtRp1556
(dp1557
g74
(dp1558
g101
g102
ssg83
g1548
sg76
(lp1559
S':'
asbag69
(g90
g71
NtRp1560
(dp1561
g74
(dp1562
sg83
g1548
sg76
(lp1563
g69
(g70
g71
NtRp1564
(dp1565
g74
(dp1566
g82
I4
ssg83
g1560
sg76
(lp1567
g69
(g78
g71
NtRp1568
(dp1569
g74
(dp1570
g82
I3
ssg83
Nsg76
(lp1571
sbasbasbasbag69
(g85
g71
NtRp1572
(dp1573
g74
(dp1574
sg83
g1503
sg76
(lp1575
g69
(g90
g71
NtRp1576
(dp1577
g74
(dp1578
g94
g95
ssg83
g1572
sg76
(lp1579
g545
asbag69
(g90
g71
NtRp1580
(dp1581
g74
(dp1582
g101
g102
ssg83
g1572
sg76
(lp1583
S':'
asbag69
(g90
g71
NtRp1584
(dp1585
g74
(dp1586
sg83
g1572
sg76
(lp1587
g69
(g70
g71
NtRp1588
(dp1589
g74
(dp1590
g82
I4
ssg83
g1584
sg76
(lp1591
S"<Values at 0x9fd880c: {'verbose': False, 'ip': '127.0.0.1', 'shutdown_timeout': 5, 'taskbar': False, 'nocron': False, 'pid_filename': 'httpserver.pid', 'maxthreads': None, 'softcron': False, 'server_name': 'main', 'bpython': False, 'nogui': False, 'port': 8000, 'extcron': False, 'debuglevel': 30, 'test': None, 'folder': '/home/kaique/Projects/web/web2py', 'config': '', 'import_models': False, 'winservice': '', 'shell': None, 'run': '', 'log_filename': 'httpserver.log', 'args': [''], 'socket_timeout': 5, 'ssl_ca_certificate': None, 'scheduler': None, 'profiler_filename': None, 'ssl_private_key': '', 'password': 'dev', 'request_queue_size': 5, 'ssl_certificate': '', 'cronjob': False, 'numthreads': None, 'quiet': False, 'interfaces': None, 'minthreads': None, 'timeout': 10, 'plain': False, 'nobanner': False}>"
p1592
asbasbasbag69
(g85
g71
NtRp1593
(dp1594
g74
(dp1595
sg83
g1503
sg76
(lp1596
g69
(g90
g71
NtRp1597
(dp1598
g74
(dp1599
g94
g95
ssg83
g1593
sg76
(lp1600
g567
asbag69
(g90
g71
NtRp1601
(dp1602
g74
(dp1603
g101
g102
ssg83
g1593
sg76
(lp1604
S':'
asbag69
(g90
g71
NtRp1605
(dp1606
g74
(dp1607
sg83
g1593
sg76
(lp1608
g69
(g70
g71
NtRp1609
(dp1610
g74
(dp1611
g82
I4
ssg83
g1605
sg76
(lp1612
S'set([])'
p1613
asbasbasbag69
(g85
g71
NtRp1614
(dp1615
g74
(dp1616
sg83
g1503
sg76
(lp1617
g69
(g90
g71
NtRp1618
(dp1619
g74
(dp1620
g94
g95
ssg83
g1614
sg76
(lp1621
g589
asbag69
(g90
g71
NtRp1622
(dp1623
g74
(dp1624
g101
g102
ssg83
g1614
sg76
(lp1625
S':'
asbag69
(g90
g71
NtRp1626
(dp1627
g74
(dp1628
sg83
g1614
sg76
(lp1629
g69
(g70
g71
NtRp1630
(dp1631
g74
(dp1632
g82
I4
ssg83
g1626
sg76
(lp1633
g112
asbasbasbag69
(g85
g71
NtRp1634
(dp1635
g74
(dp1636
sg83
g1503
sg76
(lp1637
g69
(g90
g71
NtRp1638
(dp1639
g74
(dp1640
g94
g95
ssg83
g1634
sg76
(lp1641
g610
asbag69
(g90
g71
NtRp1642
(dp1643
g74
(dp1644
g101
g102
ssg83
g1634
sg76
(lp1645
S':'
asbag69
(g90
g71
NtRp1646
(dp1647
g74
(dp1648
sg83
g1634
sg76
(lp1649
g69
(g70
g71
NtRp1650
(dp1651
g74
(dp1652
g82
I4
ssg83
g1646
sg76
(lp1653
g623
asbasbasbag69
(g85
g71
NtRp1654
(dp1655
g74
(dp1656
sg83
g1503
sg76
(lp1657
g69
(g90
g71
NtRp1658
(dp1659
g74
(dp1660
g94
g95
ssg83
g1654
sg76
(lp1661
g808
asbag69
(g90
g71
NtRp1662
(dp1663
g74
(dp1664
g101
g102
ssg83
g1654
sg76
(lp1665
S':'
asbag69
(g90
g71
NtRp1666
(dp1667
g74
(dp1668
sg83
g1654
sg76
(lp1669
g69
(g70
g71
NtRp1670
(dp1671
g74
(dp1672
g82
I4
ssg83
g1666
sg76
(lp1673
g112
asbasbasbag69
(g85
g71
NtRp1674
(dp1675
g74
(dp1676
sg83
g1503
sg76
(lp1677
g69
(g90
g71
NtRp1678
(dp1679
g74
(dp1680
g94
g95
ssg83
g1674
sg76
(lp1681
g829
asbag69
(g90
g71
NtRp1682
(dp1683
g74
(dp1684
g101
g102
ssg83
g1674
sg76
(lp1685
S':'
asbag69
(g90
g71
NtRp1686
(dp1687
g74
(dp1688
sg83
g1674
sg76
(lp1689
g69
(g70
g71
NtRp1690
(dp1691
g74
(dp1692
g82
I4
ssg83
g1686
sg76
(lp1693
g112
asbasbasbag69
(g85
g71
NtRp1694
(dp1695
g74
(dp1696
sg83
g1503
sg76
(lp1697
g69
(g90
g71
NtRp1698
(dp1699
g74
(dp1700
g94
g95
ssg83
g1694
sg76
(lp1701
g1067
asbag69
(g90
g71
NtRp1702
(dp1703
g74
(dp1704
g101
g102
ssg83
g1694
sg76
(lp1705
S':'
asbag69
(g90
g71
NtRp1706
(dp1707
g74
(dp1708
sg83
g1694
sg76
(lp1709
g69
(g70
g71
NtRp1710
(dp1711
g74
(dp1712
g82
I4
ssg83
g1706
sg76
(lp1713
g1080
asbasbasbag69
(g85
g71
NtRp1714
(dp1715
g74
(dp1716
sg83
g1503
sg76
(lp1717
g69
(g90
g71
NtRp1718
(dp1719
g74
(dp1720
g94
g95
ssg83
g1714
sg76
(lp1721
g1110
asbag69
(g90
g71
NtRp1722
(dp1723
g74
(dp1724
g101
g102
ssg83
g1714
sg76
(lp1725
S':'
asbag69
(g90
g71
NtRp1726
(dp1727
g74
(dp1728
sg83
g1714
sg76
(lp1729
g69
(g70
g71
NtRp1730
(dp1731
g74
(dp1732
g82
I4
ssg83
g1726
sg76
(lp1733
g69
(g78
g71
NtRp1734
(dp1735
g74
(dp1736
g82
I3
ssg83
Nsg76
(lp1737
g69
(g85
g71
NtRp1738
(dp1739
g74
(dp1740
sg83
g1734
sg76
(lp1741
g69
(g90
g71
NtRp1742
(dp1743
g74
(dp1744
sg83
g1738
sg76
(lp1745
g69
(g70
g71
NtRp1746
(dp1747
g74
(dp1748
g82
I3
ssg83
g1742
sg76
(lp1749
S'1'
asbasbasbag69
(g85
g71
NtRp1750
(dp1751
g74
(dp1752
sg83
g1734
sg76
(lp1753
g69
(g90
g71
NtRp1754
(dp1755
g74
(dp1756
sg83
g1750
sg76
(lp1757
g69
(g70
g71
NtRp1758
(dp1759
g74
(dp1760
g82
I3
ssg83
g1754
sg76
(lp1761
S'99'
p1762
asbasbasbag69
(g85
g71
NtRp1763
(dp1764
g74
(dp1765
sg83
g1734
sg76
(lp1766
g69
(g90
g71
NtRp1767
(dp1768
g74
(dp1769
sg83
g1763
sg76
(lp1770
g69
(g70
g71
NtRp1771
(dp1772
g74
(dp1773
g82
I3
ssg83
g1767
sg76
(lp1774
S'7'
asbasbasbag69
(g85
g71
NtRp1775
(dp1776
g74
(dp1777
sg83
g1734
sg76
(lp1778
g69
(g90
g71
NtRp1779
(dp1780
g74
(dp1781
sg83
g1775
sg76
(lp1782
g69
(g70
g71
NtRp1783
(dp1784
g74
(dp1785
g82
I3
ssg83
g1779
sg76
(lp1786
S'datetime.datetime(2012, 3, 4, 22, 12, 8)'
p1787
asbasbasbag69
(g85
g71
NtRp1788
(dp1789
g74
(dp1790
sg83
g1734
sg76
(lp1791
g69
(g90
g71
NtRp1792
(dp1793
g74
(dp1794
sg83
g1788
sg76
(lp1795
g69
(g70
g71
NtRp1796
(dp1797
g74
(dp1798
g82
I3
ssg83
g1792
sg76
(lp1799
g1189
asbasbasbasbasbasbasbasbasbasbasbag69
(g85
g71
NtRp1800
(dp1801
g74
(dp1802
sg83
g79
sg76
(lp1803
g69
(g90
g71
NtRp1804
(dp1805
g74
(dp1806
g94
g95
ssg83
g1800
sg76
(lp1807
S'is_https'
p1808
asbag69
(g90
g71
NtRp1809
(dp1810
g74
(dp1811
g101
g102
ssg83
g1800
sg76
(lp1812
S':'
asbag69
(g90
g71
NtRp1813
(dp1814
g74
(dp1815
sg83
g1800
sg76
(lp1816
g69
(g70
g71
NtRp1817
(dp1818
g74
(dp1819
g82
I5
ssg83
g1813
sg76
(lp1820
g112
asbasbasbag69
(g85
g71
NtRp1821
(dp1822
g74
(dp1823
sg83
g79
sg76
(lp1824
g69
(g90
g71
NtRp1825
(dp1826
g74
(dp1827
g94
g95
ssg83
g1821
sg76
(lp1828
S'is_local'
p1829
asbag69
(g90
g71
NtRp1830
(dp1831
g74
(dp1832
g101
g102
ssg83
g1821
sg76
(lp1833
S':'
asbag69
(g90
g71
NtRp1834
(dp1835
g74
(dp1836
sg83
g1821
sg76
(lp1837
g69
(g70
g71
NtRp1838
(dp1839
g74
(dp1840
g82
I5
ssg83
g1834
sg76
(lp1841
g1298
asbasbasbag69
(g85
g71
NtRp1842
(dp1843
g74
(dp1844
sg83
g79
sg76
(lp1845
g69
(g90
g71
NtRp1846
(dp1847
g74
(dp1848
g94
g95
ssg83
g1842
sg76
(lp1849
S'is_restful'
p1850
asbag69
(g90
g71
NtRp1851
(dp1852
g74
(dp1853
g101
g102
ssg83
g1842
sg76
(lp1854
S':'
asbag69
(g90
g71
NtRp1855
(dp1856
g74
(dp1857
sg83
g1842
sg76
(lp1858
g69
(g70
g71
NtRp1859
(dp1860
g74
(dp1861
g82
I5
ssg83
g1855
sg76
(lp1862
g112
asbasbasbag69
(g85
g71
NtRp1863
(dp1864
g74
(dp1865
sg83
g79
sg76
(lp1866
g69
(g90
g71
NtRp1867
(dp1868
g74
(dp1869
g94
g95
ssg83
g1863
sg76
(lp1870
S'now'
p1871
asbag69
(g90
g71
NtRp1872
(dp1873
g74
(dp1874
g101
g102
ssg83
g1863
sg76
(lp1875
S':'
asbag69
(g90
g71
NtRp1876
(dp1877
g74
(dp1878
sg83
g1863
sg76
(lp1879
g69
(g70
g71
NtRp1880
(dp1881
g74
(dp1882
g82
I5
ssg83
g1876
sg76
(lp1883
S'datetime.datetime(2012, 5, 26, 14, 29, 3, 874319)'
p1884
asbasbasbag69
(g85
g71
NtRp1885
(dp1886
g74
(dp1887
sg83
g79
sg76
(lp1888
g69
(g90
g71
NtRp1889
(dp1890
g74
(dp1891
g94
g95
ssg83
g1885
sg76
(lp1892
S'post_vars'
p1893
asbag69
(g90
g71
NtRp1894
(dp1895
g74
(dp1896
g101
g102
ssg83
g1885
sg76
(lp1897
S':'
asbag69
(g90
g71
NtRp1898
(dp1899
g74
(dp1900
sg83
g1885
sg76
(lp1901
g69
(g70
g71
NtRp1902
(dp1903
g74
(dp1904
g82
I5
ssg83
g1898
sg76
(lp1905
g69
(g78
g71
NtRp1906
(dp1907
g74
(dp1908
g82
I4
ssg83
Nsg76
(lp1909
sbasbasbasbag69
(g85
g71
NtRp1910
(dp1911
g74
(dp1912
sg83
g79
sg76
(lp1913
g69
(g90
g71
NtRp1914
(dp1915
g74
(dp1916
g94
g95
ssg83
g1910
sg76
(lp1917
S'url'
p1918
asbag69
(g90
g71
NtRp1919
(dp1920
g74
(dp1921
g101
g102
ssg83
g1910
sg76
(lp1922
S':'
asbag69
(g90
g71
NtRp1923
(dp1924
g74
(dp1925
sg83
g1910
sg76
(lp1926
g69
(g70
g71
NtRp1927
(dp1928
g74
(dp1929
g82
I5
ssg83
g1923
sg76
(lp1930
S'/piglet/default/index'
p1931
asbasbasbag69
(g85
g71
NtRp1932
(dp1933
g74
(dp1934
sg83
g79
sg76
(lp1935
g69
(g90
g71
NtRp1936
(dp1937
g74
(dp1938
g94
g95
ssg83
g1932
sg76
(lp1939
S'utcnow'
p1940
asbag69
(g90
g71
NtRp1941
(dp1942
g74
(dp1943
g101
g102
ssg83
g1932
sg76
(lp1944
S':'
asbag69
(g90
g71
NtRp1945
(dp1946
g74
(dp1947
sg83
g1932
sg76
(lp1948
g69
(g70
g71
NtRp1949
(dp1950
g74
(dp1951
g82
I5
ssg83
g1945
sg76
(lp1952
S'datetime.datetime(2012, 5, 26, 17, 29, 3, 874354)'
p1953
asbasbasbag69
(g85
g71
NtRp1954
(dp1955
g74
(dp1956
sg83
g79
sg76
(lp1957
g69
(g90
g71
NtRp1958
(dp1959
g74
(dp1960
g94
g95
ssg83
g1954
sg76
(lp1961
S'uuid'
p1962
asbag69
(g90
g71
NtRp1963
(dp1964
g74
(dp1965
g101
g102
ssg83
g1954
sg76
(lp1966
S':'
asbag69
(g90
g71
NtRp1967
(dp1968
g74
(dp1969
sg83
g1954
sg76
(lp1970
g69
(g70
g71
NtRp1971
(dp1972
g74
(dp1973
g82
I5
ssg83
g1967
sg76
(lp1974
S'piglet/127.0.0.1.2012-05-26.14-29-03.88aa76e8-6d70-45f8-898e-2dec07789d5a'
p1975
asbasbasbag69
(g85
g71
NtRp1976
(dp1977
g74
(dp1978
sg83
g79
sg76
(lp1979
g69
(g90
g71
NtRp1980
(dp1981
g74
(dp1982
g94
g95
ssg83
g1976
sg76
(lp1983
S'vars'
p1984
asbag69
(g90
g71
NtRp1985
(dp1986
g74
(dp1987
g101
g102
ssg83
g1976
sg76
(lp1988
S':'
asbag69
(g90
g71
NtRp1989
(dp1990
g74
(dp1991
sg83
g1976
sg76
(lp1992
g69
(g70
g71
NtRp1993
(dp1994
g74
(dp1995
g82
I5
ssg83
g1989
sg76
(lp1996
g69
(g78
g71
NtRp1997
(dp1998
g74
(dp1999
g82
I4
ssg83
Nsg76
(lp2000
sbasbasbasbag69
(g85
g71
NtRp2001
(dp2002
g74
(dp2003
sg83
g79
sg76
(lp2004
g69
(g90
g71
NtRp2005
(dp2006
g74
(dp2007
g94
g95
ssg83
g2001
sg76
(lp2008
S'wsgi'
p2009
asbag69
(g90
g71
NtRp2010
(dp2011
g74
(dp2012
g101
g102
ssg83
g2001
sg76
(lp2013
S':'
asbag69
(g90
g71
NtRp2014
(dp2015
g74
(dp2016
sg83
g2001
sg76
(lp2017
g69
(g70
g71
NtRp2018
(dp2019
g74
(dp2020
g82
I5
ssg83
g2014
sg76
(lp2021
g69
(g78
g71
NtRp2022
(dp2023
g74
(dp2024
g82
I4
ssg83
Nsg76
(lp2025
g69
(g85
g71
NtRp2026
(dp2027
g74
(dp2028
sg83
g2022
sg76
(lp2029
g69
(g90
g71
NtRp2030
(dp2031
g74
(dp2032
g94
g95
ssg83
g2026
sg76
(lp2033
S'environ'
p2034
asbag69
(g90
g71
NtRp2035
(dp2036
g74
(dp2037
g101
g102
ssg83
g2026
sg76
(lp2038
S':'
asbag69
(g90
g71
NtRp2039
(dp2040
g74
(dp2041
sg83
g2026
sg76
(lp2042
g69
(g70
g71
NtRp2043
(dp2044
g74
(dp2045
g82
I4
ssg83
g2039
sg76
(lp2046
g69
(g78
g71
NtRp2047
(dp2048
g74
(dp2049
g82
I3
ssg83
Nsg76
(lp2050
g69
(g85
g71
NtRp2051
(dp2052
g74
(dp2053
sg83
g2047
sg76
(lp2054
g69
(g90
g71
NtRp2055
(dp2056
g74
(dp2057
g94
g95
ssg83
g2051
sg76
(lp2058
S'HTTP_ACCEPT'
p2059
asbag69
(g90
g71
NtRp2060
(dp2061
g74
(dp2062
g101
g102
ssg83
g2051
sg76
(lp2063
S':'
asbag69
(g90
g71
NtRp2064
(dp2065
g74
(dp2066
sg83
g2051
sg76
(lp2067
g69
(g70
g71
NtRp2068
(dp2069
g74
(dp2070
g82
I3
ssg83
g2064
sg76
(lp2071
g645
asbasbasbag69
(g85
g71
NtRp2072
(dp2073
g74
(dp2074
sg83
g2047
sg76
(lp2075
g69
(g90
g71
NtRp2076
(dp2077
g74
(dp2078
g94
g95
ssg83
g2072
sg76
(lp2079
S'HTTP_ACCEPT_ENCODING'
p2080
asbag69
(g90
g71
NtRp2081
(dp2082
g74
(dp2083
g101
g102
ssg83
g2072
sg76
(lp2084
S':'
asbag69
(g90
g71
NtRp2085
(dp2086
g74
(dp2087
sg83
g2072
sg76
(lp2088
g69
(g70
g71
NtRp2089
(dp2090
g74
(dp2091
g82
I3
ssg83
g2085
sg76
(lp2092
g667
asbasbasbag69
(g85
g71
NtRp2093
(dp2094
g74
(dp2095
sg83
g2047
sg76
(lp2096
g69
(g90
g71
NtRp2097
(dp2098
g74
(dp2099
g94
g95
ssg83
g2093
sg76
(lp2100
S'HTTP_ACCEPT_LANGUAGE'
p2101
asbag69
(g90
g71
NtRp2102
(dp2103
g74
(dp2104
g101
g102
ssg83
g2093
sg76
(lp2105
S':'
asbag69
(g90
g71
NtRp2106
(dp2107
g74
(dp2108
sg83
g2093
sg76
(lp2109
g69
(g70
g71
NtRp2110
(dp2111
g74
(dp2112
g82
I3
ssg83
g2106
sg76
(lp2113
g689
asbasbasbag69
(g85
g71
NtRp2114
(dp2115
g74
(dp2116
sg83
g2047
sg76
(lp2117
g69
(g90
g71
NtRp2118
(dp2119
g74
(dp2120
g94
g95
ssg83
g2114
sg76
(lp2121
S'HTTP_CACHE_CONTROL'
p2122
asbag69
(g90
g71
NtRp2123
(dp2124
g74
(dp2125
g101
g102
ssg83
g2114
sg76
(lp2126
S':'
asbag69
(g90
g71
NtRp2127
(dp2128
g74
(dp2129
sg83
g2114
sg76
(lp2130
g69
(g70
g71
NtRp2131
(dp2132
g74
(dp2133
g82
I3
ssg83
g2127
sg76
(lp2134
g711
asbasbasbag69
(g85
g71
NtRp2135
(dp2136
g74
(dp2137
sg83
g2047
sg76
(lp2138
g69
(g90
g71
NtRp2139
(dp2140
g74
(dp2141
g94
g95
ssg83
g2135
sg76
(lp2142
S'HTTP_CONNECTION'
p2143
asbag69
(g90
g71
NtRp2144
(dp2145
g74
(dp2146
g101
g102
ssg83
g2135
sg76
(lp2147
S':'
asbag69
(g90
g71
NtRp2148
(dp2149
g74
(dp2150
sg83
g2135
sg76
(lp2151
g69
(g70
g71
NtRp2152
(dp2153
g74
(dp2154
g82
I3
ssg83
g2148
sg76
(lp2155
g733
asbasbasbag69
(g85
g71
NtRp2156
(dp2157
g74
(dp2158
sg83
g2047
sg76
(lp2159
g69
(g90
g71
NtRp2160
(dp2161
g74
(dp2162
g94
g95
ssg83
g2156
sg76
(lp2163
S'HTTP_COOKIE'
p2164
asbag69
(g90
g71
NtRp2165
(dp2166
g74
(dp2167
g101
g102
ssg83
g2156
sg76
(lp2168
S':'
asbag69
(g90
g71
NtRp2169
(dp2170
g74
(dp2171
sg83
g2156
sg76
(lp2172
g69
(g70
g71
NtRp2173
(dp2174
g74
(dp2175
g82
I3
ssg83
g2169
sg76
(lp2176
g755
asbasbasbag69
(g85
g71
NtRp2177
(dp2178
g74
(dp2179
sg83
g2047
sg76
(lp2180
g69
(g90
g71
NtRp2181
(dp2182
g74
(dp2183
g94
g95
ssg83
g2177
sg76
(lp2184
S'HTTP_HOST'
p2185
asbag69
(g90
g71
NtRp2186
(dp2187
g74
(dp2188
g101
g102
ssg83
g2177
sg76
(lp2189
S':'
asbag69
(g90
g71
NtRp2190
(dp2191
g74
(dp2192
sg83
g2177
sg76
(lp2193
g69
(g70
g71
NtRp2194
(dp2195
g74
(dp2196
g82
I3
ssg83
g2190
sg76
(lp2197
g777
asbasbasbag69
(g85
g71
NtRp2198
(dp2199
g74
(dp2200
sg83
g2047
sg76
(lp2201
g69
(g90
g71
NtRp2202
(dp2203
g74
(dp2204
g94
g95
ssg83
g2198
sg76
(lp2205
S'HTTP_USER_AGENT'
p2206
asbag69
(g90
g71
NtRp2207
(dp2208
g74
(dp2209
g101
g102
ssg83
g2198
sg76
(lp2210
S':'
asbag69
(g90
g71
NtRp2211
(dp2212
g74
(dp2213
sg83
g2198
sg76
(lp2214
g69
(g70
g71
NtRp2215
(dp2216
g74
(dp2217
g82
I3
ssg83
g2211
sg76
(lp2218
g799
asbasbasbag69
(g85
g71
NtRp2219
(dp2220
g74
(dp2221
sg83
g2047
sg76
(lp2222
g69
(g90
g71
NtRp2223
(dp2224
g74
(dp2225
g94
g95
ssg83
g2219
sg76
(lp2226
S'PATH_INFO'
p2227
asbag69
(g90
g71
NtRp2228
(dp2229
g74
(dp2230
g101
g102
ssg83
g2219
sg76
(lp2231
S':'
asbag69
(g90
g71
NtRp2232
(dp2233
g74
(dp2234
sg83
g2219
sg76
(lp2235
g69
(g70
g71
NtRp2236
(dp2237
g74
(dp2238
g82
I3
ssg83
g2232
sg76
(lp2239
g863
asbasbasbag69
(g85
g71
NtRp2240
(dp2241
g74
(dp2242
sg83
g2047
sg76
(lp2243
g69
(g90
g71
NtRp2244
(dp2245
g74
(dp2246
g94
g95
ssg83
g2240
sg76
(lp2247
S'QUERY_STRING'
p2248
asbag69
(g90
g71
NtRp2249
(dp2250
g74
(dp2251
g101
g102
ssg83
g2240
sg76
(lp2252
S':'
asbag69
(g90
g71
NtRp2253
(dp2254
g74
(dp2255
sg83
g2240
sg76
(lp2256
g69
(g70
g71
NtRp2257
(dp2258
g74
(dp2259
g82
I3
ssg83
g2253
sg76
(lp2260
S''
asbasbasbag69
(g85
g71
NtRp2261
(dp2262
g74
(dp2263
sg83
g2047
sg76
(lp2264
g69
(g90
g71
NtRp2265
(dp2266
g74
(dp2267
g94
g95
ssg83
g2261
sg76
(lp2268
S'REMOTE_ADDR'
p2269
asbag69
(g90
g71
NtRp2270
(dp2271
g74
(dp2272
g101
g102
ssg83
g2261
sg76
(lp2273
S':'
asbag69
(g90
g71
NtRp2274
(dp2275
g74
(dp2276
sg83
g2261
sg76
(lp2277
g69
(g70
g71
NtRp2278
(dp2279
g74
(dp2280
g82
I3
ssg83
g2274
sg76
(lp2281
g202
asbasbasbag69
(g85
g71
NtRp2282
(dp2283
g74
(dp2284
sg83
g2047
sg76
(lp2285
g69
(g90
g71
NtRp2286
(dp2287
g74
(dp2288
g94
g95
ssg83
g2282
sg76
(lp2289
S'REMOTE_PORT'
p2290
asbag69
(g90
g71
NtRp2291
(dp2292
g74
(dp2293
g101
g102
ssg83
g2282
sg76
(lp2294
S':'
asbag69
(g90
g71
NtRp2295
(dp2296
g74
(dp2297
sg83
g2282
sg76
(lp2298
g69
(g70
g71
NtRp2299
(dp2300
g74
(dp2301
g82
I3
ssg83
g2295
sg76
(lp2302
g927
asbasbasbag69
(g85
g71
NtRp2303
(dp2304
g74
(dp2305
sg83
g2047
sg76
(lp2306
g69
(g90
g71
NtRp2307
(dp2308
g74
(dp2309
g94
g95
ssg83
g2303
sg76
(lp2310
S'REQUEST_METHOD'
p2311
asbag69
(g90
g71
NtRp2312
(dp2313
g74
(dp2314
g101
g102
ssg83
g2303
sg76
(lp2315
S':'
asbag69
(g90
g71
NtRp2316
(dp2317
g74
(dp2318
sg83
g2303
sg76
(lp2319
g69
(g70
g71
NtRp2320
(dp2321
g74
(dp2322
g82
I3
ssg83
g2316
sg76
(lp2323
g949
asbasbasbag69
(g85
g71
NtRp2324
(dp2325
g74
(dp2326
sg83
g2047
sg76
(lp2327
g69
(g90
g71
NtRp2328
(dp2329
g74
(dp2330
g94
g95
ssg83
g2324
sg76
(lp2331
S'SCRIPT_NAME'
p2332
asbag69
(g90
g71
NtRp2333
(dp2334
g74
(dp2335
g101
g102
ssg83
g2324
sg76
(lp2336
S':'
asbag69
(g90
g71
NtRp2337
(dp2338
g74
(dp2339
sg83
g2324
sg76
(lp2340
g69
(g70
g71
NtRp2341
(dp2342
g74
(dp2343
g82
I3
ssg83
g2337
sg76
(lp2344
S''
asbasbasbag69
(g85
g71
NtRp2345
(dp2346
g74
(dp2347
sg83
g2047
sg76
(lp2348
g69
(g90
g71
NtRp2349
(dp2350
g74
(dp2351
g94
g95
ssg83
g2345
sg76
(lp2352
S'SERVER_NAME'
p2353
asbag69
(g90
g71
NtRp2354
(dp2355
g74
(dp2356
g101
g102
ssg83
g2345
sg76
(lp2357
S':'
asbag69
(g90
g71
NtRp2358
(dp2359
g74
(dp2360
sg83
g2345
sg76
(lp2361
g69
(g70
g71
NtRp2362
(dp2363
g74
(dp2364
g82
I3
ssg83
g2358
sg76
(lp2365
g992
asbasbasbag69
(g85
g71
NtRp2366
(dp2367
g74
(dp2368
sg83
g2047
sg76
(lp2369
g69
(g90
g71
NtRp2370
(dp2371
g74
(dp2372
g94
g95
ssg83
g2366
sg76
(lp2373
S'SERVER_PORT'
p2374
asbag69
(g90
g71
NtRp2375
(dp2376
g74
(dp2377
g101
g102
ssg83
g2366
sg76
(lp2378
S':'
asbag69
(g90
g71
NtRp2379
(dp2380
g74
(dp2381
sg83
g2366
sg76
(lp2382
g69
(g70
g71
NtRp2383
(dp2384
g74
(dp2385
g82
I3
ssg83
g2379
sg76
(lp2386
g1014
asbasbasbag69
(g85
g71
NtRp2387
(dp2388
g74
(dp2389
sg83
g2047
sg76
(lp2390
g69
(g90
g71
NtRp2391
(dp2392
g74
(dp2393
g94
g95
ssg83
g2387
sg76
(lp2394
S'SERVER_PROTOCOL'
p2395
asbag69
(g90
g71
NtRp2396
(dp2397
g74
(dp2398
g101
g102
ssg83
g2387
sg76
(lp2399
S':'
asbag69
(g90
g71
NtRp2400
(dp2401
g74
(dp2402
sg83
g2387
sg76
(lp2403
g69
(g70
g71
NtRp2404
(dp2405
g74
(dp2406
g82
I3
ssg83
g2400
sg76
(lp2407
g1036
asbasbasbag69
(g85
g71
NtRp2408
(dp2409
g74
(dp2410
sg83
g2047
sg76
(lp2411
g69
(g90
g71
NtRp2412
(dp2413
g74
(dp2414
g94
g95
ssg83
g2408
sg76
(lp2415
S'SERVER_SOFTWARE'
p2416
asbag69
(g90
g71
NtRp2417
(dp2418
g74
(dp2419
g101
g102
ssg83
g2408
sg76
(lp2420
S':'
asbag69
(g90
g71
NtRp2421
(dp2422
g74
(dp2423
sg83
g2408
sg76
(lp2424
g69
(g70
g71
NtRp2425
(dp2426
g74
(dp2427
g82
I3
ssg83
g2421
sg76
(lp2428
g1058
asbasbasbag69
(g85
g71
NtRp2429
(dp2430
g74
(dp2431
sg83
g2047
sg76
(lp2432
g69
(g90
g71
NtRp2433
(dp2434
g74
(dp2435
g94
g95
ssg83
g2429
sg76
(lp2436
S'wsgi.errors'
p2437
asbag69
(g90
g71
NtRp2438
(dp2439
g74
(dp2440
g101
g102
ssg83
g2429
sg76
(lp2441
S':'
asbag69
(g90
g71
NtRp2442
(dp2443
g74
(dp2444
sg83
g2429
sg76
(lp2445
g69
(g70
g71
NtRp2446
(dp2447
g74
(dp2448
g82
I3
ssg83
g2442
sg76
(lp2449
S"<open file '<stderr>', mode 'w' at 0xb76e00d0>"
p2450
asbasbasbag69
(g85
g71
NtRp2451
(dp2452
g74
(dp2453
sg83
g2047
sg76
(lp2454
g69
(g90
g71
NtRp2455
(dp2456
g74
(dp2457
g94
g95
ssg83
g2451
sg76
(lp2458
S'wsgi.file_wrapper'
p2459
asbag69
(g90
g71
NtRp2460
(dp2461
g74
(dp2462
g101
g102
ssg83
g2451
sg76
(lp2463
S':'
asbag69
(g90
g71
NtRp2464
(dp2465
g74
(dp2466
sg83
g2451
sg76
(lp2467
g69
(g70
g71
NtRp2468
(dp2469
g74
(dp2470
g82
I3
ssg83
g2464
sg76
(lp2471
S'<class wsgiref.util.FileWrapper at 0x9fb0e6c>'
p2472
asbasbasbag69
(g85
g71
NtRp2473
(dp2474
g74
(dp2475
sg83
g2047
sg76
(lp2476
g69
(g90
g71
NtRp2477
(dp2478
g74
(dp2479
g94
g95
ssg83
g2473
sg76
(lp2480
S'wsgi.input'
p2481
asbag69
(g90
g71
NtRp2482
(dp2483
g74
(dp2484
g101
g102
ssg83
g2473
sg76
(lp2485
S':'
asbag69
(g90
g71
NtRp2486
(dp2487
g74
(dp2488
sg83
g2473
sg76
(lp2489
g69
(g70
g71
NtRp2490
(dp2491
g74
(dp2492
g82
I3
ssg83
g2486
sg76
(lp2493
S'<cStringIO.StringO object at 0xb03020a0>'
p2494
asbasbasbag69
(g85
g71
NtRp2495
(dp2496
g74
(dp2497
sg83
g2047
sg76
(lp2498
g69
(g90
g71
NtRp2499
(dp2500
g74
(dp2501
g94
g95
ssg83
g2495
sg76
(lp2502
S'wsgi.multiprocess'
p2503
asbag69
(g90
g71
NtRp2504
(dp2505
g74
(dp2506
g101
g102
ssg83
g2495
sg76
(lp2507
S':'
asbag69
(g90
g71
NtRp2508
(dp2509
g74
(dp2510
sg83
g2495
sg76
(lp2511
g69
(g70
g71
NtRp2512
(dp2513
g74
(dp2514
g82
I3
ssg83
g2508
sg76
(lp2515
g112
asbasbasbag69
(g85
g71
NtRp2516
(dp2517
g74
(dp2518
sg83
g2047
sg76
(lp2519
g69
(g90
g71
NtRp2520
(dp2521
g74
(dp2522
g94
g95
ssg83
g2516
sg76
(lp2523
S'wsgi.multithread'
p2524
asbag69
(g90
g71
NtRp2525
(dp2526
g74
(dp2527
g101
g102
ssg83
g2516
sg76
(lp2528
S':'
asbag69
(g90
g71
NtRp2529
(dp2530
g74
(dp2531
sg83
g2516
sg76
(lp2532
g69
(g70
g71
NtRp2533
(dp2534
g74
(dp2535
g82
I3
ssg83
g2529
sg76
(lp2536
g1298
asbasbasbag69
(g85
g71
NtRp2537
(dp2538
g74
(dp2539
sg83
g2047
sg76
(lp2540
g69
(g90
g71
NtRp2541
(dp2542
g74
(dp2543
g94
g95
ssg83
g2537
sg76
(lp2544
S'wsgi.run_once'
p2545
asbag69
(g90
g71
NtRp2546
(dp2547
g74
(dp2548
g101
g102
ssg83
g2537
sg76
(lp2549
S':'
asbag69
(g90
g71
NtRp2550
(dp2551
g74
(dp2552
sg83
g2537
sg76
(lp2553
g69
(g70
g71
NtRp2554
(dp2555
g74
(dp2556
g82
I3
ssg83
g2550
sg76
(lp2557
g112
asbasbasbag69
(g85
g71
NtRp2558
(dp2559
g74
(dp2560
sg83
g2047
sg76
(lp2561
g69
(g90
g71
NtRp2562
(dp2563
g74
(dp2564
g94
g95
ssg83
g2558
sg76
(lp2565
S'wsgi.url_scheme'
p2566
asbag69
(g90
g71
NtRp2567
(dp2568
g74
(dp2569
g101
g102
ssg83
g2558
sg76
(lp2570
S':'
asbag69
(g90
g71
NtRp2571
(dp2572
g74
(dp2573
sg83
g2558
sg76
(lp2574
g69
(g70
g71
NtRp2575
(dp2576
g74
(dp2577
g82
I3
ssg83
g2571
sg76
(lp2578
g1341
asbasbasbag69
(g85
g71
NtRp2579
(dp2580
g74
(dp2581
sg83
g2047
sg76
(lp2582
g69
(g90
g71
NtRp2583
(dp2584
g74
(dp2585
g94
g95
ssg83
g2579
sg76
(lp2586
S'wsgi.version'
p2587
asbag69
(g90
g71
NtRp2588
(dp2589
g74
(dp2590
g101
g102
ssg83
g2579
sg76
(lp2591
S':'
asbag69
(g90
g71
NtRp2592
(dp2593
g74
(dp2594
sg83
g2579
sg76
(lp2595
g69
(g70
g71
NtRp2596
(dp2597
g74
(dp2598
g82
I3
ssg83
g2592
sg76
(lp2599
S'1'
asbasbasbasbasbasbasbasbasbasbasbasbasbsS'frames'
p2600
(lp2601
(dp2602
S'file'
p2603
S'/home/kaique/Projects/web/web2py/gluon/restricted.py'
p2604
sS'dump'
p2605
(dp2606
S'code'
p2607
S'r"left_sidebar_enabled,right_sidebar_enabled=False...\\n</script>\\n\\n</body>\\n</html>\\n\', escape=False)"'
p2608
sS'layer'
p2609
S"'/home/kaique/Projects/web/web2py/applications/piglet/views/default/index.html'"
p2610
sS'global compile2'
p2611
S'<function compile2>'
p2612
sS'ccode'
p2613
S'undefined'
p2614
ssS'lnum'
p2615
I204
sS'lines'
p2616
(dp2617
I199
S"    environment['__name__'] = '__restricted__'"
p2618
sI200
S'    try:'
p2619
sI201
S'        if type(code) == types.CodeType:'
p2620
sI202
S'            ccode = code'
p2621
sI203
S'        else:'
p2622
sI204
S'            ccode = compile2(code,layer)'
p2623
sI205
S'        exec ccode in environment'
p2624
sI206
S'    except HTTP:'
p2625
sI207
S'        raise'
p2626
sI208
S'    except RestrictedError:'
p2627
ssS'call'
p2628
S'(code=r"left_sidebar_enabled,right_sidebar_enabled=False...\\n</script>\\n\\n</body>\\n</html>\\n\', escape=False)", environment={\'A\': <class \'gluon.html.A\'>, \'Auth\': <class \'gluon.tools.Auth\'>, \'B\': <class \'gluon.html.B\'>, \'BEAUTIFY\': <class \'gluon.html.BEAUTIFY\'>, \'BODY\': <class \'gluon.html.BODY\'>, \'BR\': <class \'gluon.html.BR\'>, \'BUTTON\': <class \'gluon.html.BUTTON\'>, \'CAT\': <class \'gluon.html.CAT\'>, \'CENTER\': <class \'gluon.html.CENTER\'>, \'CLEANUP\': <class \'gluon.validators.CLEANUP\'>, ...}, layer=\'/home/kaique/Projects/web/web2py/applications/piglet/views/default/index.html\')'
p2629
sS'func'
p2630
S'restricted'
p2631
sa(dp2632
g2603
S'/home/kaique/Projects/web/web2py/gluon/restricted.py'
p2633
sg2605
(dp2634
S'builtincompile'
p2635
S'<built-in function compile>'
p2636
sS'code'
p2637
S'r"left_sidebar_enabled,right_sidebar_enabled=False...\\n</script>\\n\\n</body>\\n</html>\\n\', escape=False)"'
p2638
sS'code.rstrip'
p2639
S'<built-in method rstrip of str object>'
p2640
sS').replace'
p2641
g2614
sS'layer'
p2642
S"'/home/kaique/Projects/web/web2py/applications/piglet/views/default/index.html'"
p2643
ssg2615
I189
sg2616
(dp2644
I192
S'    """'
p2645
sI193
S'    runs code in environment and returns the output. if an exception occurs'
p2646
sI184
S''
sI185
S'def compile2(code,layer):'
p2647
sI186
S'    """'
p2648
sI187
S"    The +'\\n' is necessary else compile fails when code ends in a comment."
p2649
sI188
S'    """'
p2650
sI189
S"    return compile(code.rstrip().replace('\\r\\n','\\n')+'\\n', layer, 'exec')"
p2651
sI190
S''
sI191
S"def restricted(code, environment=None, layer='Unknown'):"
p2652
ssg2628
S'(code=r"left_sidebar_enabled,right_sidebar_enabled=False...\\n</script>\\n\\n</body>\\n</html>\\n\', escape=False)", layer=\'/home/kaique/Projects/web/web2py/applications/piglet/views/default/index.html\')'
p2653
sg2630
S'compile2'
p2654
sasS'pyver'
p2655
S'Python 2.7.3: /usr/bin/python'
p2656
sS'session'
p2657
g69
(g70
g71
NtRp2658
(dp2659
g74
(dp2660
sg76
(lp2661
g69
(g78
g71
NtRp2662
(dp2663
g74
(dp2664
g82
I5
ssg83
Nsg76
(lp2665
sbasbsS'etype'
p2666
S"<type 'exceptions.SyntaxError'>"
p2667
sS'date'
p2668
S'Sat May 26 14:29:03 2012'
p2669
sS'response'
p2670
g69
(g70
g71
NtRp2671
(dp2672
g74
(dp2673
sg76
(lp2674
g69
(g78
g71
NtRp2675
(dp2676
g74
(dp2677
g82
I5
ssg83
Nsg76
(lp2678
g69
(g85
g71
NtRp2679
(dp2680
g74
(dp2681
sg83
g2675
sg76
(lp2682
g69
(g90
g71
NtRp2683
(dp2684
g74
(dp2685
g94
g95
ssg83
g2679
sg76
(lp2686
g167
asbag69
(g90
g71
NtRp2687
(dp2688
g74
(dp2689
g101
g102
ssg83
g2679
sg76
(lp2690
S':'
asbag69
(g90
g71
NtRp2691
(dp2692
g74
(dp2693
sg83
g2679
sg76
(lp2694
g69
(g70
g71
NtRp2695
(dp2696
g74
(dp2697
g82
I5
ssg83
g2691
sg76
(lp2698
S'<cStringIO.StringO object at 0xb050cd40>'
p2699
asbasbasbag69
(g85
g71
NtRp2700
(dp2701
g74
(dp2702
sg83
g2675
sg76
(lp2703
g69
(g90
g71
NtRp2704
(dp2705
g74
(dp2706
g94
g95
ssg83
g2700
sg76
(lp2707
g233
asbag69
(g90
g71
NtRp2708
(dp2709
g74
(dp2710
g101
g102
ssg83
g2700
sg76
(lp2711
S':'
asbag69
(g90
g71
NtRp2712
(dp2713
g74
(dp2714
sg83
g2700
sg76
(lp2715
g69
(g70
g71
NtRp2716
(dp2717
g74
(dp2718
g82
I5
ssg83
g2712
sg76
(lp2719
g69
(g78
g71
NtRp2720
(dp2721
g74
(dp2722
g82
I4
ssg83
Nsg76
(lp2723
g69
(g85
g71
NtRp2724
(dp2725
g74
(dp2726
sg83
g2720
sg76
(lp2727
g69
(g90
g71
NtRp2728
(dp2729
g74
(dp2730
g94
g95
ssg83
g2724
sg76
(lp2731
S'session_id_piglet'
p2732
asbag69
(g90
g71
NtRp2733
(dp2734
g74
(dp2735
g101
g102
ssg83
g2724
sg76
(lp2736
S':'
asbag69
(g90
g71
NtRp2737
(dp2738
g74
(dp2739
sg83
g2724
sg76
(lp2740
g69
(g70
g71
NtRp2741
(dp2742
g74
(dp2743
g82
I4
ssg83
g2737
sg76
(lp2744
g69
(g78
g71
NtRp2745
(dp2746
g74
(dp2747
g82
I3
ssg83
Nsg76
(lp2748
g69
(g85
g71
NtRp2749
(dp2750
g74
(dp2751
sg83
g2745
sg76
(lp2752
g69
(g90
g71
NtRp2753
(dp2754
g74
(dp2755
g94
g95
ssg83
g2749
sg76
(lp2756
g283
asbag69
(g90
g71
NtRp2757
(dp2758
g74
(dp2759
g101
g102
ssg83
g2749
sg76
(lp2760
S':'
asbag69
(g90
g71
NtRp2761
(dp2762
g74
(dp2763
sg83
g2749
sg76
(lp2764
g69
(g70
g71
NtRp2765
(dp2766
g74
(dp2767
g82
I3
ssg83
g2761
sg76
(lp2768
S''
asbasbasbag69
(g85
g71
NtRp2769
(dp2770
g74
(dp2771
sg83
g2745
sg76
(lp2772
g69
(g90
g71
NtRp2773
(dp2774
g74
(dp2775
g94
g95
ssg83
g2769
sg76
(lp2776
g304
asbag69
(g90
g71
NtRp2777
(dp2778
g74
(dp2779
g101
g102
ssg83
g2769
sg76
(lp2780
S':'
asbag69
(g90
g71
NtRp2781
(dp2782
g74
(dp2783
sg83
g2769
sg76
(lp2784
g69
(g70
g71
NtRp2785
(dp2786
g74
(dp2787
g82
I3
ssg83
g2781
sg76
(lp2788
S''
asbasbasbag69
(g85
g71
NtRp2789
(dp2790
g74
(dp2791
sg83
g2745
sg76
(lp2792
g69
(g90
g71
NtRp2793
(dp2794
g74
(dp2795
g94
g95
ssg83
g2789
sg76
(lp2796
g325
asbag69
(g90
g71
NtRp2797
(dp2798
g74
(dp2799
g101
g102
ssg83
g2789
sg76
(lp2800
S':'
asbag69
(g90
g71
NtRp2801
(dp2802
g74
(dp2803
sg83
g2789
sg76
(lp2804
g69
(g70
g71
NtRp2805
(dp2806
g74
(dp2807
g82
I3
ssg83
g2801
sg76
(lp2808
S''
asbasbasbag69
(g85
g71
NtRp2809
(dp2810
g74
(dp2811
sg83
g2745
sg76
(lp2812
g69
(g90
g71
NtRp2813
(dp2814
g74
(dp2815
g94
g95
ssg83
g2809
sg76
(lp2816
g346
asbag69
(g90
g71
NtRp2817
(dp2818
g74
(dp2819
g101
g102
ssg83
g2809
sg76
(lp2820
S':'
asbag69
(g90
g71
NtRp2821
(dp2822
g74
(dp2823
sg83
g2809
sg76
(lp2824
g69
(g70
g71
NtRp2825
(dp2826
g74
(dp2827
g82
I3
ssg83
g2821
sg76
(lp2828
S''
asbasbasbag69
(g85
g71
NtRp2829
(dp2830
g74
(dp2831
sg83
g2745
sg76
(lp2832
g69
(g90
g71
NtRp2833
(dp2834
g74
(dp2835
g94
g95
ssg83
g2829
sg76
(lp2836
g367
asbag69
(g90
g71
NtRp2837
(dp2838
g74
(dp2839
g101
g102
ssg83
g2829
sg76
(lp2840
S':'
asbag69
(g90
g71
NtRp2841
(dp2842
g74
(dp2843
sg83
g2829
sg76
(lp2844
g69
(g70
g71
NtRp2845
(dp2846
g74
(dp2847
g82
I3
ssg83
g2841
sg76
(lp2848
S''
asbasbasbag69
(g85
g71
NtRp2849
(dp2850
g74
(dp2851
sg83
g2745
sg76
(lp2852
g69
(g90
g71
NtRp2853
(dp2854
g74
(dp2855
g94
g95
ssg83
g2849
sg76
(lp2856
g388
asbag69
(g90
g71
NtRp2857
(dp2858
g74
(dp2859
g101
g102
ssg83
g2849
sg76
(lp2860
S':'
asbag69
(g90
g71
NtRp2861
(dp2862
g74
(dp2863
sg83
g2849
sg76
(lp2864
g69
(g70
g71
NtRp2865
(dp2866
g74
(dp2867
g82
I3
ssg83
g2861
sg76
(lp2868
S'/'
asbasbasbag69
(g85
g71
NtRp2869
(dp2870
g74
(dp2871
sg83
g2745
sg76
(lp2872
g69
(g90
g71
NtRp2873
(dp2874
g74
(dp2875
g94
g95
ssg83
g2869
sg76
(lp2876
g409
asbag69
(g90
g71
NtRp2877
(dp2878
g74
(dp2879
g101
g102
ssg83
g2869
sg76
(lp2880
S':'
asbag69
(g90
g71
NtRp2881
(dp2882
g74
(dp2883
sg83
g2869
sg76
(lp2884
g69
(g70
g71
NtRp2885
(dp2886
g74
(dp2887
g82
I3
ssg83
g2881
sg76
(lp2888
S''
asbasbasbag69
(g85
g71
NtRp2889
(dp2890
g74
(dp2891
sg83
g2745
sg76
(lp2892
g69
(g90
g71
NtRp2893
(dp2894
g74
(dp2895
g94
g95
ssg83
g2889
sg76
(lp2896
g430
asbag69
(g90
g71
NtRp2897
(dp2898
g74
(dp2899
g101
g102
ssg83
g2889
sg76
(lp2900
S':'
asbag69
(g90
g71
NtRp2901
(dp2902
g74
(dp2903
sg83
g2889
sg76
(lp2904
g69
(g70
g71
NtRp2905
(dp2906
g74
(dp2907
g82
I3
ssg83
g2901
sg76
(lp2908
S''
asbasbasbasbasbasbasbasbasbasbasbag69
(g85
g71
NtRp2909
(dp2910
g74
(dp2911
sg83
g2675
sg76
(lp2912
g69
(g90
g71
NtRp2913
(dp2914
g74
(dp2915
g94
g95
ssg83
g2909
sg76
(lp2916
S'delimiters'
p2917
asbag69
(g90
g71
NtRp2918
(dp2919
g74
(dp2920
g101
g102
ssg83
g2909
sg76
(lp2921
S':'
asbag69
(g90
g71
NtRp2922
(dp2923
g74
(dp2924
sg83
g2909
sg76
(lp2925
g69
(g70
g71
NtRp2926
(dp2927
g74
(dp2928
g82
I5
ssg83
g2922
sg76
(lp2929
g69
(g78
g71
NtRp2930
(dp2931
g74
(dp2932
g82
I4
ssg83
Nsg76
(lp2933
g69
(g85
g71
NtRp2934
(dp2935
g74
(dp2936
sg83
g2930
sg76
(lp2937
g69
(g90
g71
NtRp2938
(dp2939
g74
(dp2940
sg83
g2934
sg76
(lp2941
g69
(g70
g71
NtRp2942
(dp2943
g74
(dp2944
g82
I4
ssg83
g2938
sg76
(lp2945
S'{{'
p2946
asbasbasbag69
(g85
g71
NtRp2947
(dp2948
g74
(dp2949
sg83
g2930
sg76
(lp2950
g69
(g90
g71
NtRp2951
(dp2952
g74
(dp2953
sg83
g2947
sg76
(lp2954
g69
(g70
g71
NtRp2955
(dp2956
g74
(dp2957
g82
I4
ssg83
g2951
sg76
(lp2958
S'}}'
p2959
asbasbasbasbasbasbasbag69
(g85
g71
NtRp2960
(dp2961
g74
(dp2962
sg83
g2675
sg76
(lp2963
g69
(g90
g71
NtRp2964
(dp2965
g74
(dp2966
g94
g95
ssg83
g2960
sg76
(lp2967
S'files'
p2968
asbag69
(g90
g71
NtRp2969
(dp2970
g74
(dp2971
g101
g102
ssg83
g2960
sg76
(lp2972
S':'
asbag69
(g90
g71
NtRp2973
(dp2974
g74
(dp2975
sg83
g2960
sg76
(lp2976
g69
(g70
g71
NtRp2977
(dp2978
g74
(dp2979
g82
I5
ssg83
g2973
sg76
(lp2980
g69
(g78
g71
NtRp2981
(dp2982
g74
(dp2983
g82
I4
ssg83
Nsg76
(lp2984
sbasbasbasbag69
(g85
g71
NtRp2985
(dp2986
g74
(dp2987
sg83
g2675
sg76
(lp2988
g69
(g90
g71
NtRp2989
(dp2990
g74
(dp2991
g94
g95
ssg83
g2985
sg76
(lp2992
S'flash'
p2993
asbag69
(g90
g71
NtRp2994
(dp2995
g74
(dp2996
g101
g102
ssg83
g2985
sg76
(lp2997
S':'
asbag69
(g90
g71
NtRp2998
(dp2999
g74
(dp3000
sg83
g2985
sg76
(lp3001
g69
(g70
g71
NtRp3002
(dp3003
g74
(dp3004
g82
I5
ssg83
g2998
sg76
(lp3005
S''
asbasbasbag69
(g85
g71
NtRp3006
(dp3007
g74
(dp3008
sg83
g2675
sg76
(lp3009
g69
(g90
g71
NtRp3010
(dp3011
g74
(dp3012
g94
g95
ssg83
g3006
sg76
(lp3013
S'generic_patterns'
p3014
asbag69
(g90
g71
NtRp3015
(dp3016
g74
(dp3017
g101
g102
ssg83
g3006
sg76
(lp3018
S':'
asbag69
(g90
g71
NtRp3019
(dp3020
g74
(dp3021
sg83
g3006
sg76
(lp3022
g69
(g70
g71
NtRp3023
(dp3024
g74
(dp3025
g82
I5
ssg83
g3019
sg76
(lp3026
g69
(g78
g71
NtRp3027
(dp3028
g74
(dp3029
g82
I4
ssg83
Nsg76
(lp3030
g69
(g85
g71
NtRp3031
(dp3032
g74
(dp3033
sg83
g3027
sg76
(lp3034
g69
(g90
g71
NtRp3035
(dp3036
g74
(dp3037
sg83
g3031
sg76
(lp3038
g69
(g70
g71
NtRp3039
(dp3040
g74
(dp3041
g82
I4
ssg83
g3035
sg76
(lp3042
S'*'
asbasbasbasbasbasbasbag69
(g85
g71
NtRp3043
(dp3044
g74
(dp3045
sg83
g2675
sg76
(lp3046
g69
(g90
g71
NtRp3047
(dp3048
g74
(dp3049
g94
g95
ssg83
g3043
sg76
(lp3050
S'headers'
p3051
asbag69
(g90
g71
NtRp3052
(dp3053
g74
(dp3054
g101
g102
ssg83
g3043
sg76
(lp3055
S':'
asbag69
(g90
g71
NtRp3056
(dp3057
g74
(dp3058
sg83
g3043
sg76
(lp3059
g69
(g70
g71
NtRp3060
(dp3061
g74
(dp3062
g82
I5
ssg83
g3056
sg76
(lp3063
g69
(g78
g71
NtRp3064
(dp3065
g74
(dp3066
g82
I4
ssg83
Nsg76
(lp3067
g69
(g85
g71
NtRp3068
(dp3069
g74
(dp3070
sg83
g3064
sg76
(lp3071
g69
(g90
g71
NtRp3072
(dp3073
g74
(dp3074
g94
g95
ssg83
g3068
sg76
(lp3075
S'Cache-Control'
p3076
asbag69
(g90
g71
NtRp3077
(dp3078
g74
(dp3079
g101
g102
ssg83
g3068
sg76
(lp3080
S':'
asbag69
(g90
g71
NtRp3081
(dp3082
g74
(dp3083
sg83
g3068
sg76
(lp3084
g69
(g70
g71
NtRp3085
(dp3086
g74
(dp3087
g82
I4
ssg83
g3081
sg76
(lp3088
S'no-store, no-cache, must-revalidate, post-check=0, pre-check=0'
p3089
asbasbasbag69
(g85
g71
NtRp3090
(dp3091
g74
(dp3092
sg83
g3064
sg76
(lp3093
g69
(g90
g71
NtRp3094
(dp3095
g74
(dp3096
g94
g95
ssg83
g3090
sg76
(lp3097
S'Content-Type'
p3098
asbag69
(g90
g71
NtRp3099
(dp3100
g74
(dp3101
g101
g102
ssg83
g3090
sg76
(lp3102
S':'
asbag69
(g90
g71
NtRp3103
(dp3104
g74
(dp3105
sg83
g3090
sg76
(lp3106
g69
(g70
g71
NtRp3107
(dp3108
g74
(dp3109
g82
I4
ssg83
g3103
sg76
(lp3110
S'text/html; charset=utf-8'
p3111
asbasbasbag69
(g85
g71
NtRp3112
(dp3113
g74
(dp3114
sg83
g3064
sg76
(lp3115
g69
(g90
g71
NtRp3116
(dp3117
g74
(dp3118
g94
g95
ssg83
g3112
sg76
(lp3119
S'Expires'
p3120
asbag69
(g90
g71
NtRp3121
(dp3122
g74
(dp3123
g101
g102
ssg83
g3112
sg76
(lp3124
S':'
asbag69
(g90
g71
NtRp3125
(dp3126
g74
(dp3127
sg83
g3112
sg76
(lp3128
g69
(g70
g71
NtRp3129
(dp3130
g74
(dp3131
g82
I4
ssg83
g3125
sg76
(lp3132
S'Sat, 26 May 2012 17:29:03 GMT'
p3133
asbasbasbag69
(g85
g71
NtRp3134
(dp3135
g74
(dp3136
sg83
g3064
sg76
(lp3137
g69
(g90
g71
NtRp3138
(dp3139
g74
(dp3140
g94
g95
ssg83
g3134
sg76
(lp3141
S'Pragma'
p3142
asbag69
(g90
g71
NtRp3143
(dp3144
g74
(dp3145
g101
g102
ssg83
g3134
sg76
(lp3146
S':'
asbag69
(g90
g71
NtRp3147
(dp3148
g74
(dp3149
sg83
g3134
sg76
(lp3150
g69
(g70
g71
NtRp3151
(dp3152
g74
(dp3153
g82
I4
ssg83
g3147
sg76
(lp3154
S'no-cache'
p3155
asbasbasbag69
(g85
g71
NtRp3156
(dp3157
g74
(dp3158
sg83
g3064
sg76
(lp3159
g69
(g90
g71
NtRp3160
(dp3161
g74
(dp3162
g94
g95
ssg83
g3156
sg76
(lp3163
S'X-Powered-By'
p3164
asbag69
(g90
g71
NtRp3165
(dp3166
g74
(dp3167
g101
g102
ssg83
g3156
sg76
(lp3168
S':'
asbag69
(g90
g71
NtRp3169
(dp3170
g74
(dp3171
sg83
g3156
sg76
(lp3172
g69
(g70
g71
NtRp3173
(dp3174
g74
(dp3175
g82
I4
ssg83
g3169
sg76
(lp3176
S'web2py'
p3177
asbasbasbasbasbasbasbag69
(g85
g71
NtRp3178
(dp3179
g74
(dp3180
sg83
g2675
sg76
(lp3181
g69
(g90
g71
NtRp3182
(dp3183
g74
(dp3184
g94
g95
ssg83
g3178
sg76
(lp3185
S'menu'
p3186
asbag69
(g90
g71
NtRp3187
(dp3188
g74
(dp3189
g101
g102
ssg83
g3178
sg76
(lp3190
S':'
asbag69
(g90
g71
NtRp3191
(dp3192
g74
(dp3193
sg83
g3178
sg76
(lp3194
g69
(g70
g71
NtRp3195
(dp3196
g74
(dp3197
g82
I5
ssg83
g3191
sg76
(lp3198
g69
(g78
g71
NtRp3199
(dp3200
g74
(dp3201
g82
I4
ssg83
Nsg76
(lp3202
g69
(g85
g71
NtRp3203
(dp3204
g74
(dp3205
sg83
g3199
sg76
(lp3206
g69
(g90
g71
NtRp3207
(dp3208
g74
(dp3209
sg83
g3203
sg76
(lp3210
g69
(g70
g71
NtRp3211
(dp3212
g74
(dp3213
g82
I4
ssg83
g3207
sg76
(lp3214
g69
(g78
g71
NtRp3215
(dp3216
g74
(dp3217
g82
I3
ssg83
Nsg76
(lp3218
g69
(g85
g71
NtRp3219
(dp3220
g74
(dp3221
sg83
g3215
sg76
(lp3222
g69
(g90
g71
NtRp3223
(dp3224
g74
(dp3225
sg83
g3219
sg76
(lp3226
g69
(g70
g71
NtRp3227
(dp3228
g74
(dp3229
g82
I3
ssg83
g3223
sg76
(lp3230
cgluon.languages
lazyT_unpickle
p3231
(S't\x04\x00\x00\x00Home'
tRp3232
asbasbasbag69
(g85
g71
NtRp3233
(dp3234
g74
(dp3235
sg83
g3215
sg76
(lp3236
g69
(g90
g71
NtRp3237
(dp3238
g74
(dp3239
sg83
g3233
sg76
(lp3240
g69
(g70
g71
NtRp3241
(dp3242
g74
(dp3243
g82
I3
ssg83
g3237
sg76
(lp3244
g112
asbasbasbag69
(g85
g71
NtRp3245
(dp3246
g74
(dp3247
sg83
g3215
sg76
(lp3248
g69
(g90
g71
NtRp3249
(dp3250
g74
(dp3251
sg83
g3245
sg76
(lp3252
g69
(g70
g71
NtRp3253
(dp3254
g74
(dp3255
g82
I3
ssg83
g3249
sg76
(lp3256
S'/piglet/default/index'
p3257
asbasbasbag69
(g85
g71
NtRp3258
(dp3259
g74
(dp3260
sg83
g3215
sg76
(lp3261
g69
(g90
g71
NtRp3262
(dp3263
g74
(dp3264
sg83
g3258
sg76
(lp3265
g69
(g70
g71
NtRp3266
(dp3267
g74
(dp3268
g82
I3
ssg83
g3262
sg76
(lp3269
g69
(g78
g71
NtRp3270
(dp3271
g74
(dp3272
g82
I2
ssg83
Nsg76
(lp3273
sbasbasbasbasbasbasbasbasbasbasbasbag69
(g85
g71
NtRp3274
(dp3275
g74
(dp3276
sg83
g2675
sg76
(lp3277
g69
(g90
g71
NtRp3278
(dp3279
g74
(dp3280
g94
g95
ssg83
g3274
sg76
(lp3281
S'meta'
p3282
asbag69
(g90
g71
NtRp3283
(dp3284
g74
(dp3285
g101
g102
ssg83
g3274
sg76
(lp3286
S':'
asbag69
(g90
g71
NtRp3287
(dp3288
g74
(dp3289
sg83
g3274
sg76
(lp3290
g69
(g70
g71
NtRp3291
(dp3292
g74
(dp3293
g82
I5
ssg83
g3287
sg76
(lp3294
g69
(g78
g71
NtRp3295
(dp3296
g74
(dp3297
g82
I4
ssg83
Nsg76
(lp3298
g69
(g85
g71
NtRp3299
(dp3300
g74
(dp3301
sg83
g3295
sg76
(lp3302
g69
(g90
g71
NtRp3303
(dp3304
g74
(dp3305
g94
g95
ssg83
g3299
sg76
(lp3306
S'author'
p3307
asbag69
(g90
g71
NtRp3308
(dp3309
g74
(dp3310
g101
g102
ssg83
g3299
sg76
(lp3311
S':'
asbag69
(g90
g71
NtRp3312
(dp3313
g74
(dp3314
sg83
g3299
sg76
(lp3315
g69
(g70
g71
NtRp3316
(dp3317
g74
(dp3318
g82
I4
ssg83
g3312
sg76
(lp3319
S'Kaique da Silva <kaique.developer@gmail.com>'
p3320
asbasbasbag69
(g85
g71
NtRp3321
(dp3322
g74
(dp3323
sg83
g3295
sg76
(lp3324
g69
(g90
g71
NtRp3325
(dp3326
g74
(dp3327
g94
g95
ssg83
g3321
sg76
(lp3328
S'copyright'
p3329
asbag69
(g90
g71
NtRp3330
(dp3331
g74
(dp3332
g101
g102
ssg83
g3321
sg76
(lp3333
S':'
asbag69
(g90
g71
NtRp3334
(dp3335
g74
(dp3336
sg83
g3321
sg76
(lp3337
g69
(g70
g71
NtRp3338
(dp3339
g74
(dp3340
g82
I4
ssg83
g3334
sg76
(lp3341
S'Copyright 2012'
p3342
asbasbasbag69
(g85
g71
NtRp3343
(dp3344
g74
(dp3345
sg83
g3295
sg76
(lp3346
g69
(g90
g71
NtRp3347
(dp3348
g74
(dp3349
g94
g95
ssg83
g3343
sg76
(lp3350
S'description'
p3351
asbag69
(g90
g71
NtRp3352
(dp3353
g74
(dp3354
g101
g102
ssg83
g3343
sg76
(lp3355
S':'
asbag69
(g90
g71
NtRp3356
(dp3357
g74
(dp3358
sg83
g3343
sg76
(lp3359
g69
(g70
g71
NtRp3360
(dp3361
g74
(dp3362
g82
I4
ssg83
g3356
sg76
(lp3363
S'Polling app'
p3364
asbasbasbag69
(g85
g71
NtRp3365
(dp3366
g74
(dp3367
sg83
g3295
sg76
(lp3368
g69
(g90
g71
NtRp3369
(dp3370
g74
(dp3371
g94
g95
ssg83
g3365
sg76
(lp3372
S'keywords'
p3373
asbag69
(g90
g71
NtRp3374
(dp3375
g74
(dp3376
g101
g102
ssg83
g3365
sg76
(lp3377
S':'
asbag69
(g90
g71
NtRp3378
(dp3379
g74
(dp3380
sg83
g3365
sg76
(lp3381
g69
(g70
g71
NtRp3382
(dp3383
g74
(dp3384
g82
I4
ssg83
g3378
sg76
(lp3385
S'questions, sort, poll'
p3386
asbasbasbasbasbasbasbag69
(g85
g71
NtRp3387
(dp3388
g74
(dp3389
sg83
g2675
sg76
(lp3390
g69
(g90
g71
NtRp3391
(dp3392
g74
(dp3393
g94
g95
ssg83
g3387
sg76
(lp3394
S'postprocessing'
p3395
asbag69
(g90
g71
NtRp3396
(dp3397
g74
(dp3398
g101
g102
ssg83
g3387
sg76
(lp3399
S':'
asbag69
(g90
g71
NtRp3400
(dp3401
g74
(dp3402
sg83
g3387
sg76
(lp3403
g69
(g70
g71
NtRp3404
(dp3405
g74
(dp3406
g82
I5
ssg83
g3400
sg76
(lp3407
g69
(g78
g71
NtRp3408
(dp3409
g74
(dp3410
g82
I4
ssg83
Nsg76
(lp3411
sbasbasbasbag69
(g85
g71
NtRp3412
(dp3413
g74
(dp3414
sg83
g2675
sg76
(lp3415
g69
(g90
g71
NtRp3416
(dp3417
g74
(dp3418
g94
g95
ssg83
g3412
sg76
(lp3419
S'session_file'
p3420
asbag69
(g90
g71
NtRp3421
(dp3422
g74
(dp3423
g101
g102
ssg83
g3412
sg76
(lp3424
S':'
asbag69
(g90
g71
NtRp3425
(dp3426
g74
(dp3427
sg83
g3412
sg76
(lp3428
g69
(g70
g71
NtRp3429
(dp3430
g74
(dp3431
g82
I5
ssg83
g3425
sg76
(lp3432
S"<open file '/home/kaique/Projects/web/web2py/applications/piglet/sessions/127.0.0.1-467b5a6c-08d5-415c-bff2-844a234b46f4', mode 'rb+' at 0xa0a5968>"
p3433
asbasbasbag69
(g85
g71
NtRp3434
(dp3435
g74
(dp3436
sg83
g2675
sg76
(lp3437
g69
(g90
g71
NtRp3438
(dp3439
g74
(dp3440
g94
g95
ssg83
g3434
sg76
(lp3441
S'session_filename'
p3442
asbag69
(g90
g71
NtRp3443
(dp3444
g74
(dp3445
g101
g102
ssg83
g3434
sg76
(lp3446
S':'
asbag69
(g90
g71
NtRp3447
(dp3448
g74
(dp3449
sg83
g3434
sg76
(lp3450
g69
(g70
g71
NtRp3451
(dp3452
g74
(dp3453
g82
I5
ssg83
g3447
sg76
(lp3454
S'/home/kaique/Projects/web/web2py/applications/piglet/sessions/127.0.0.1-467b5a6c-08d5-415c-bff2-844a234b46f4'
p3455
asbasbasbag69
(g85
g71
NtRp3456
(dp3457
g74
(dp3458
sg83
g2675
sg76
(lp3459
g69
(g90
g71
NtRp3460
(dp3461
g74
(dp3462
g94
g95
ssg83
g3456
sg76
(lp3463
S'session_id'
p3464
asbag69
(g90
g71
NtRp3465
(dp3466
g74
(dp3467
g101
g102
ssg83
g3456
sg76
(lp3468
S':'
asbag69
(g90
g71
NtRp3469
(dp3470
g74
(dp3471
sg83
g3456
sg76
(lp3472
g69
(g70
g71
NtRp3473
(dp3474
g74
(dp3475
g82
I5
ssg83
g3469
sg76
(lp3476
S'127.0.0.1-467b5a6c-08d5-415c-bff2-844a234b46f4'
p3477
asbasbasbag69
(g85
g71
NtRp3478
(dp3479
g74
(dp3480
sg83
g2675
sg76
(lp3481
g69
(g90
g71
NtRp3482
(dp3483
g74
(dp3484
g94
g95
ssg83
g3478
sg76
(lp3485
S'session_id_name'
p3486
asbag69
(g90
g71
NtRp3487
(dp3488
g74
(dp3489
g101
g102
ssg83
g3478
sg76
(lp3490
S':'
asbag69
(g90
g71
NtRp3491
(dp3492
g74
(dp3493
sg83
g3478
sg76
(lp3494
g69
(g70
g71
NtRp3495
(dp3496
g74
(dp3497
g82
I5
ssg83
g3491
sg76
(lp3498
g2732
asbasbasbag69
(g85
g71
NtRp3499
(dp3500
g74
(dp3501
sg83
g2675
sg76
(lp3502
g69
(g90
g71
NtRp3503
(dp3504
g74
(dp3505
g94
g95
ssg83
g3499
sg76
(lp3506
S'session_locked'
p3507
asbag69
(g90
g71
NtRp3508
(dp3509
g74
(dp3510
g101
g102
ssg83
g3499
sg76
(lp3511
S':'
asbag69
(g90
g71
NtRp3512
(dp3513
g74
(dp3514
sg83
g3499
sg76
(lp3515
g69
(g70
g71
NtRp3516
(dp3517
g74
(dp3518
g82
I5
ssg83
g3512
sg76
(lp3519
g1298
asbasbasbag69
(g85
g71
NtRp3520
(dp3521
g74
(dp3522
sg83
g2675
sg76
(lp3523
g69
(g90
g71
NtRp3524
(dp3525
g74
(dp3526
g94
g95
ssg83
g3520
sg76
(lp3527
S'session_new'
p3528
asbag69
(g90
g71
NtRp3529
(dp3530
g74
(dp3531
g101
g102
ssg83
g3520
sg76
(lp3532
S':'
asbag69
(g90
g71
NtRp3533
(dp3534
g74
(dp3535
sg83
g3520
sg76
(lp3536
g69
(g70
g71
NtRp3537
(dp3538
g74
(dp3539
g82
I5
ssg83
g3533
sg76
(lp3540
g112
asbasbasbag69
(g85
g71
NtRp3541
(dp3542
g74
(dp3543
sg83
g2675
sg76
(lp3544
g69
(g90
g71
NtRp3545
(dp3546
g74
(dp3547
g94
g95
ssg83
g3541
sg76
(lp3548
S'status'
p3549
asbag69
(g90
g71
NtRp3550
(dp3551
g74
(dp3552
g101
g102
ssg83
g3541
sg76
(lp3553
S':'
asbag69
(g90
g71
NtRp3554
(dp3555
g74
(dp3556
sg83
g3541
sg76
(lp3557
g69
(g70
g71
NtRp3558
(dp3559
g74
(dp3560
g82
I5
ssg83
g3554
sg76
(lp3561
S'200'
p3562
asbasbasbag69
(g85
g71
NtRp3563
(dp3564
g74
(dp3565
sg83
g2675
sg76
(lp3566
g69
(g90
g71
NtRp3567
(dp3568
g74
(dp3569
g94
g95
ssg83
g3563
sg76
(lp3570
S'title'
p3571
asbag69
(g90
g71
NtRp3572
(dp3573
g74
(dp3574
g101
g102
ssg83
g3563
sg76
(lp3575
S':'
asbag69
(g90
g71
NtRp3576
(dp3577
g74
(dp3578
sg83
g3563
sg76
(lp3579
g69
(g70
g71
NtRp3580
(dp3581
g74
(dp3582
g82
I5
ssg83
g3576
sg76
(lp3583
S'Piglet'
p3584
asbasbasbag69
(g85
g71
NtRp3585
(dp3586
g74
(dp3587
sg83
g2675
sg76
(lp3588
g69
(g90
g71
NtRp3589
(dp3590
g74
(dp3591
g94
g95
ssg83
g3585
sg76
(lp3592
g1962
asbag69
(g90
g71
NtRp3593
(dp3594
g74
(dp3595
g101
g102
ssg83
g3585
sg76
(lp3596
S':'
asbag69
(g90
g71
NtRp3597
(dp3598
g74
(dp3599
sg83
g3585
sg76
(lp3600
g69
(g70
g71
NtRp3601
(dp3602
g74
(dp3603
g82
I5
ssg83
g3597
sg76
(lp3604
g1975
asbasbasbag69
(g85
g71
NtRp3605
(dp3606
g74
(dp3607
sg83
g2675
sg76
(lp3608
g69
(g90
g71
NtRp3609
(dp3610
g74
(dp3611
g94
g95
ssg83
g3605
sg76
(lp3612
S'view'
p3613
asbag69
(g90
g71
NtRp3614
(dp3615
g74
(dp3616
g101
g102
ssg83
g3605
sg76
(lp3617
S':'
asbag69
(g90
g71
NtRp3618
(dp3619
g74
(dp3620
sg83
g3605
sg76
(lp3621
g69
(g70
g71
NtRp3622
(dp3623
g74
(dp3624
g82
I5
ssg83
g3618
sg76
(lp3625
S'default/index.html'
p3626
asbasbasbasbasbsS'locals'
p3627
(dp3628
g4
S"'/home/kaique/Projects/web/web2py/applications/piglet/views/default/index.html'"
p3629
sg6
S'r"left_sidebar_enabled,right_sidebar_enabled=False...\\n</script>\\n\\n</body>\\n</html>\\n\', escape=False)"'
p3630
sssS'traceback'
p3631
S'Traceback (most recent call last):\n  File "/home/kaique/Projects/web/web2py/gluon/restricted.py", line 204, in restricted\n    ccode = compile2(code,layer)\n  File "/home/kaique/Projects/web/web2py/gluon/restricted.py", line 189, in compile2\n    return compile(code.rstrip().replace(\'\\r\\n\',\'\\n\')+\'\\n\', layer, \'exec\')\n  File "/home/kaique/Projects/web/web2py/applications/piglet/views/default/index.html", line 41\n    if request.flash_title: request.flash_title pass\n                                                   ^\nSyntaxError: invalid syntax\n'
p3632
s.